MPLINK 5.08, LINKER
Linker Map File - Created Sun Nov 22 18:28:48 2020

                                 Section Info
                  Section       Type    Address   Location Size(Bytes)
                ---------  ---------  ---------  ---------  ---------
                 RES_VECT       code   0x000000    program   0x000002
                   .cinit    romdata   0x000001    program   0x000004
               ISR_VECTOR       code   0x000004    program   0x0000a2
                MAIN_PROG       code   0x000100    program   0x000148
.config_2007_BUILD/DEFAULT/PRODUCTION/PRUEBA.       code   0x002007    program   0x000002
.config_2008_BUILD/DEFAULT/PRODUCTION/PRUEBA.       code   0x002008    program   0x000002
                  GPR_VAR      udata   0x000020       data   0x000013



                              Program Memory Usage 
                               Start         End      
                           ---------   ---------      
                            0x000000    0x000002      
                            0x000004    0x000054      
                            0x000100    0x0001a3      
                            0x002007    0x002008      
            250 out of 8455 program addresses used, program memory utilization is 2%



                              Symbols - Sorted by Name
                     Name    Address   Location    Storage File                     
                ---------  ---------  ---------  --------- ---------                
                AUTOMATIC   0x00010c    program     static E:\UVG\Semestre 4\Micros\Proyecto_Garra\Prueba_Serial.X\Prueba.asm
           AUTOMATIC_HIGH   0x000117    program     static E:\UVG\Semestre 4\Micros\Proyecto_Garra\Prueba_Serial.X\Prueba.asm
            AUTOMATIC_LOW   0x000110    program     static E:\UVG\Semestre 4\Micros\Proyecto_Garra\Prueba_Serial.X\Prueba.asm
               BANDERA_RX   0x00001f    program     static E:\UVG\Semestre 4\Micros\Proyecto_Garra\Prueba_Serial.X\Prueba.asm
           BANDERA_TIMER0   0x000011    program     static E:\UVG\Semestre 4\Micros\Proyecto_Garra\Prueba_Serial.X\Prueba.asm
       CONFIGURACION_BASE   0x000138    program     static E:\UVG\Semestre 4\Micros\Proyecto_Garra\Prueba_Serial.X\Prueba.asm
CONFIGURACION_INTERRUPCION   0x000181    program     static E:\UVG\Semestre 4\Micros\Proyecto_Garra\Prueba_Serial.X\Prueba.asm
        CONFIGURACION_PWM   0x000161    program     static E:\UVG\Semestre 4\Micros\Proyecto_Garra\Prueba_Serial.X\Prueba.asm
         CONFIGURACION_RX   0x00019e    program     static E:\UVG\Semestre 4\Micros\Proyecto_Garra\Prueba_Serial.X\Prueba.asm
     CONFIGURACION_TIMER0   0x000174    program     static E:\UVG\Semestre 4\Micros\Proyecto_Garra\Prueba_Serial.X\Prueba.asm
     CONFIGURACION_TIMER2   0x00017c    program     static E:\UVG\Semestre 4\Micros\Proyecto_Garra\Prueba_Serial.X\Prueba.asm
    CONFIGURACION_TX_9600   0x00018d    program     static E:\UVG\Semestre 4\Micros\Proyecto_Garra\Prueba_Serial.X\Prueba.asm
         CONVERSION_COMPU   0x00011e    program     static E:\UVG\Semestre 4\Micros\Proyecto_Garra\Prueba_Serial.X\Prueba.asm
                  ERRONEO   0x000053    program     static E:\UVG\Semestre 4\Micros\Proyecto_Garra\Prueba_Serial.X\Prueba.asm
                HIGH_OPEN   0x000013    program     static E:\UVG\Semestre 4\Micros\Proyecto_Garra\Prueba_Serial.X\Prueba.asm
                      ISR   0x000008    program     static E:\UVG\Semestre 4\Micros\Proyecto_Garra\Prueba_Serial.X\Prueba.asm
                     LOOP   0x000107    program     static E:\UVG\Semestre 4\Micros\Proyecto_Garra\Prueba_Serial.X\Prueba.asm
                 LOW_OPEN   0x000019    program     static E:\UVG\Semestre 4\Micros\Proyecto_Garra\Prueba_Serial.X\Prueba.asm
                   MANUAL   0x00010b    program     static E:\UVG\Semestre 4\Micros\Proyecto_Garra\Prueba_Serial.X\Prueba.asm
                      POP   0x00000c    program     static E:\UVG\Semestre 4\Micros\Proyecto_Garra\Prueba_Serial.X\Prueba.asm
                     PUSH   0x000004    program     static E:\UVG\Semestre 4\Micros\Proyecto_Garra\Prueba_Serial.X\Prueba.asm
                   SERVO1   0x000161    program     static E:\UVG\Semestre 4\Micros\Proyecto_Garra\Prueba_Serial.X\Prueba.asm
                   SERVO2   0x00016b    program     static E:\UVG\Semestre 4\Micros\Proyecto_Garra\Prueba_Serial.X\Prueba.asm
                    SETUP   0x000100    program     static E:\UVG\Semestre 4\Micros\Proyecto_Garra\Prueba_Serial.X\Prueba.asm
                    START   0x000100    program     static E:\UVG\Semestre 4\Micros\Proyecto_Garra\Prueba_Serial.X\Prueba.asm
             VERIFICACION   0x000034    program     static E:\UVG\Semestre 4\Micros\Proyecto_Garra\Prueba_Serial.X\Prueba.asm
          _MAIN_PROG_0126   0x000126    program     static E:\UVG\Semestre 4\Micros\Proyecto_Garra\Prueba_Serial.X\Prueba.asm
          _MAIN_PROG_0132   0x000132    program     static E:\UVG\Semestre 4\Micros\Proyecto_Garra\Prueba_Serial.X\Prueba.asm
                     ALTO   0x000022       data     static E:\UVG\Semestre 4\Micros\Proyecto_Garra\Prueba_Serial.X\Prueba.asm
                     BAJO   0x000023       data     static E:\UVG\Semestre 4\Micros\Proyecto_Garra\Prueba_Serial.X\Prueba.asm
                 CUENTARX   0x000031       data     static E:\UVG\Semestre 4\Micros\Proyecto_Garra\Prueba_Serial.X\Prueba.asm
                 DIVISION   0x000032       data     static E:\UVG\Semestre 4\Micros\Proyecto_Garra\Prueba_Serial.X\Prueba.asm
                     RXB0   0x000025       data     static E:\UVG\Semestre 4\Micros\Proyecto_Garra\Prueba_Serial.X\Prueba.asm
                     RXB1   0x000026       data     static E:\UVG\Semestre 4\Micros\Proyecto_Garra\Prueba_Serial.X\Prueba.asm
                     RXB2   0x000027       data     static E:\UVG\Semestre 4\Micros\Proyecto_Garra\Prueba_Serial.X\Prueba.asm
                     RXB3   0x000028       data     static E:\UVG\Semestre 4\Micros\Proyecto_Garra\Prueba_Serial.X\Prueba.asm
                     RXB4   0x000029       data     static E:\UVG\Semestre 4\Micros\Proyecto_Garra\Prueba_Serial.X\Prueba.asm
                     RXB5   0x00002a       data     static E:\UVG\Semestre 4\Micros\Proyecto_Garra\Prueba_Serial.X\Prueba.asm
                     RXB6   0x00002b       data     static E:\UVG\Semestre 4\Micros\Proyecto_Garra\Prueba_Serial.X\Prueba.asm
                     RXB7   0x00002c       data     static E:\UVG\Semestre 4\Micros\Proyecto_Garra\Prueba_Serial.X\Prueba.asm
               SERVO_EJE1   0x00002e       data     static E:\UVG\Semestre 4\Micros\Proyecto_Garra\Prueba_Serial.X\Prueba.asm
               SERVO_EJE2   0x00002f       data     static E:\UVG\Semestre 4\Micros\Proyecto_Garra\Prueba_Serial.X\Prueba.asm
                SERVO_FUN   0x000030       data     static E:\UVG\Semestre 4\Micros\Proyecto_Garra\Prueba_Serial.X\Prueba.asm
              SERVO_GARRA   0x00002d       data     static E:\UVG\Semestre 4\Micros\Proyecto_Garra\Prueba_Serial.X\Prueba.asm
              STATUS_TEMP   0x000021       data     static E:\UVG\Semestre 4\Micros\Proyecto_Garra\Prueba_Serial.X\Prueba.asm
                   TOGGLE   0x000024       data     static E:\UVG\Semestre 4\Micros\Proyecto_Garra\Prueba_Serial.X\Prueba.asm
                   W_TEMP   0x000020       data     static E:\UVG\Semestre 4\Micros\Proyecto_Garra\Prueba_Serial.X\Prueba.asm



                              Symbols - Sorted by Address
                     Name    Address   Location    Storage File                     
                ---------  ---------  ---------  --------- ---------                
                     PUSH   0x000004    program     static E:\UVG\Semestre 4\Micros\Proyecto_Garra\Prueba_Serial.X\Prueba.asm
                      ISR   0x000008    program     static E:\UVG\Semestre 4\Micros\Proyecto_Garra\Prueba_Serial.X\Prueba.asm
                      POP   0x00000c    program     static E:\UVG\Semestre 4\Micros\Proyecto_Garra\Prueba_Serial.X\Prueba.asm
           BANDERA_TIMER0   0x000011    program     static E:\UVG\Semestre 4\Micros\Proyecto_Garra\Prueba_Serial.X\Prueba.asm
                HIGH_OPEN   0x000013    program     static E:\UVG\Semestre 4\Micros\Proyecto_Garra\Prueba_Serial.X\Prueba.asm
                 LOW_OPEN   0x000019    program     static E:\UVG\Semestre 4\Micros\Proyecto_Garra\Prueba_Serial.X\Prueba.asm
               BANDERA_RX   0x00001f    program     static E:\UVG\Semestre 4\Micros\Proyecto_Garra\Prueba_Serial.X\Prueba.asm
             VERIFICACION   0x000034    program     static E:\UVG\Semestre 4\Micros\Proyecto_Garra\Prueba_Serial.X\Prueba.asm
                  ERRONEO   0x000053    program     static E:\UVG\Semestre 4\Micros\Proyecto_Garra\Prueba_Serial.X\Prueba.asm
                    START   0x000100    program     static E:\UVG\Semestre 4\Micros\Proyecto_Garra\Prueba_Serial.X\Prueba.asm
                    SETUP   0x000100    program     static E:\UVG\Semestre 4\Micros\Proyecto_Garra\Prueba_Serial.X\Prueba.asm
                     LOOP   0x000107    program     static E:\UVG\Semestre 4\Micros\Proyecto_Garra\Prueba_Serial.X\Prueba.asm
                   MANUAL   0x00010b    program     static E:\UVG\Semestre 4\Micros\Proyecto_Garra\Prueba_Serial.X\Prueba.asm
                AUTOMATIC   0x00010c    program     static E:\UVG\Semestre 4\Micros\Proyecto_Garra\Prueba_Serial.X\Prueba.asm
            AUTOMATIC_LOW   0x000110    program     static E:\UVG\Semestre 4\Micros\Proyecto_Garra\Prueba_Serial.X\Prueba.asm
           AUTOMATIC_HIGH   0x000117    program     static E:\UVG\Semestre 4\Micros\Proyecto_Garra\Prueba_Serial.X\Prueba.asm
         CONVERSION_COMPU   0x00011e    program     static E:\UVG\Semestre 4\Micros\Proyecto_Garra\Prueba_Serial.X\Prueba.asm
          _MAIN_PROG_0126   0x000126    program     static E:\UVG\Semestre 4\Micros\Proyecto_Garra\Prueba_Serial.X\Prueba.asm
          _MAIN_PROG_0132   0x000132    program     static E:\UVG\Semestre 4\Micros\Proyecto_Garra\Prueba_Serial.X\Prueba.asm
       CONFIGURACION_BASE   0x000138    program     static E:\UVG\Semestre 4\Micros\Proyecto_Garra\Prueba_Serial.X\Prueba.asm
        CONFIGURACION_PWM   0x000161    program     static E:\UVG\Semestre 4\Micros\Proyecto_Garra\Prueba_Serial.X\Prueba.asm
                   SERVO1   0x000161    program     static E:\UVG\Semestre 4\Micros\Proyecto_Garra\Prueba_Serial.X\Prueba.asm
                   SERVO2   0x00016b    program     static E:\UVG\Semestre 4\Micros\Proyecto_Garra\Prueba_Serial.X\Prueba.asm
     CONFIGURACION_TIMER0   0x000174    program     static E:\UVG\Semestre 4\Micros\Proyecto_Garra\Prueba_Serial.X\Prueba.asm
     CONFIGURACION_TIMER2   0x00017c    program     static E:\UVG\Semestre 4\Micros\Proyecto_Garra\Prueba_Serial.X\Prueba.asm
CONFIGURACION_INTERRUPCION   0x000181    program     static E:\UVG\Semestre 4\Micros\Proyecto_Garra\Prueba_Serial.X\Prueba.asm
    CONFIGURACION_TX_9600   0x00018d    program     static E:\UVG\Semestre 4\Micros\Proyecto_Garra\Prueba_Serial.X\Prueba.asm
         CONFIGURACION_RX   0x00019e    program     static E:\UVG\Semestre 4\Micros\Proyecto_Garra\Prueba_Serial.X\Prueba.asm
                   W_TEMP   0x000020       data     static E:\UVG\Semestre 4\Micros\Proyecto_Garra\Prueba_Serial.X\Prueba.asm
              STATUS_TEMP   0x000021       data     static E:\UVG\Semestre 4\Micros\Proyecto_Garra\Prueba_Serial.X\Prueba.asm
                     ALTO   0x000022       data     static E:\UVG\Semestre 4\Micros\Proyecto_Garra\Prueba_Serial.X\Prueba.asm
                     BAJO   0x000023       data     static E:\UVG\Semestre 4\Micros\Proyecto_Garra\Prueba_Serial.X\Prueba.asm
                   TOGGLE   0x000024       data     static E:\UVG\Semestre 4\Micros\Proyecto_Garra\Prueba_Serial.X\Prueba.asm
                     RXB0   0x000025       data     static E:\UVG\Semestre 4\Micros\Proyecto_Garra\Prueba_Serial.X\Prueba.asm
                     RXB1   0x000026       data     static E:\UVG\Semestre 4\Micros\Proyecto_Garra\Prueba_Serial.X\Prueba.asm
                     RXB2   0x000027       data     static E:\UVG\Semestre 4\Micros\Proyecto_Garra\Prueba_Serial.X\Prueba.asm
                     RXB3   0x000028       data     static E:\UVG\Semestre 4\Micros\Proyecto_Garra\Prueba_Serial.X\Prueba.asm
                     RXB4   0x000029       data     static E:\UVG\Semestre 4\Micros\Proyecto_Garra\Prueba_Serial.X\Prueba.asm
                     RXB5   0x00002a       data     static E:\UVG\Semestre 4\Micros\Proyecto_Garra\Prueba_Serial.X\Prueba.asm
                     RXB6   0x00002b       data     static E:\UVG\Semestre 4\Micros\Proyecto_Garra\Prueba_Serial.X\Prueba.asm
                     RXB7   0x00002c       data     static E:\UVG\Semestre 4\Micros\Proyecto_Garra\Prueba_Serial.X\Prueba.asm
              SERVO_GARRA   0x00002d       data     static E:\UVG\Semestre 4\Micros\Proyecto_Garra\Prueba_Serial.X\Prueba.asm
               SERVO_EJE1   0x00002e       data     static E:\UVG\Semestre 4\Micros\Proyecto_Garra\Prueba_Serial.X\Prueba.asm
               SERVO_EJE2   0x00002f       data     static E:\UVG\Semestre 4\Micros\Proyecto_Garra\Prueba_Serial.X\Prueba.asm
                SERVO_FUN   0x000030       data     static E:\UVG\Semestre 4\Micros\Proyecto_Garra\Prueba_Serial.X\Prueba.asm
                 CUENTARX   0x000031       data     static E:\UVG\Semestre 4\Micros\Proyecto_Garra\Prueba_Serial.X\Prueba.asm
                 DIVISION   0x000032       data     static E:\UVG\Semestre 4\Micros\Proyecto_Garra\Prueba_Serial.X\Prueba.asm


