MPASM 5.77                          CODE.ASM   11-21-2020  10:57:18         PAGE  1


LOC  OBJECT CODE     LINE SOURCE TEXT
  VALUE

                      00001 ;*******************************************************************************
                      00002 ;                                                                              *
                      00003 ;    Filename:              Code -> code.asm                                   *
                      00004 ;    Date:                  03/11/2020                                         *
                      00005 ;    File Version:          v.1                                                *
                      00006 ;    Author:                Ricardo Pellecer Orellana                          *
                      00007 ;    Company:               UVG                                                *
                      00008 ;    Description:           LAB 8                                              *
                      00009 ;                                                                              *
                      00010 ;*******************************************************************************
                      00011 
                      00012 #include "p16f887.inc"
                      00001         LIST
                      00002 
                      00003 ;==========================================================================
                      00004 ; Build date : Nov 22 2017
                      00005 ;  MPASM PIC16F887 processor include
                      00006 ; 
                      00007 ;  (c) Copyright 1999-2017 Microchip Technology, All rights reserved
                      00008 ;==========================================================================
                      00009 
                      00810         LIST
                      00013 
                      00014 ; CONFIG1
                      00015 ; __config 0xE0D4
2007   20D4           00016  __CONFIG _CONFIG1, _FOSC_INTRC_NOCLKOUT & _WDTE_OFF & _PWRTE_OFF & _MCLRE_OFF & _CP_OFF & _CPD_OFF & _B
                            OREN_OFF & _IESO_OFF & _FCMEN_OFF & _LVP_OFF
                      00017 ; CONFIG2
                      00018 ; __config 0xFFFF
2008   3FFF           00019  __CONFIG _CONFIG2, _BOR4V_BOR40V & _WRT_OFF
                      00020  
                      00021 ; TODO PLACE VARIABLE DEFINITIONS GO HERE
                      00022 
                      00023  
                      00024 GPR_VAR                         UDATA
Warning[207]: Found label after column 1. (W_TEMP)
0000                  00025     W_TEMP                      RES         1   ; PARA GUARDAR INFO MIENTRAS SE EJECUTA LA INTERRUPCIÓN
Warning[207]: Found label after column 1. (STATUS_TEMP)
0001                  00026     STATUS_TEMP                 RES         1
Warning[207]: Found label after column 1. (VAR_ADCX)
0002                  00027     VAR_ADCX                    RES         1
Warning[207]: Found label after column 1. (VAR_ADCY)
0003                  00028     VAR_ADCY                    RES         1
Warning[207]: Found label after column 1. (FLAG_ADC)
0004                  00029     FLAG_ADC                    RES         1
Warning[207]: Found label after column 1. (FLAG)
0005                  00030     FLAG                        RES         1
Warning[207]: Found label after column 1. (FLAG_ANTIREBOTE)
0006                  00031     FLAG_ANTIREBOTE             RES         1
Warning[207]: Found label after column 1. (DISPLAY_HX)
0007                  00032     DISPLAY_HX                  RES         1   
Warning[207]: Found label after column 1. (DISPLAY_LX)
0008                  00033     DISPLAY_LX                  RES         1   
MPASM 5.77                          CODE.ASM   11-21-2020  10:57:18         PAGE  2


LOC  OBJECT CODE     LINE SOURCE TEXT
  VALUE

Warning[207]: Found label after column 1. (DISPLAY_HY)
0009                  00034     DISPLAY_HY                  RES         1   
Warning[207]: Found label after column 1. (DISPLAY_LY)
000A                  00035     DISPLAY_LY                  RES         1
Warning[207]: Found label after column 1. (ITERACIONES)
000B                  00036     ITERACIONES                 RES         1
Warning[207]: Found label after column 1. (CONTROL)
000C                  00037     CONTROL                     RES         1
Warning[207]: Found label after column 1. (MODO)
000D                  00038     MODO                        RES         1
Warning[207]: Found label after column 1. (TOGGLE)
000E                  00039     TOGGLE                      RES         1
Warning[207]: Found label after column 1. (CONT1)
000F                  00040     CONT1                       RES         1
                      00041                 
                      00042 
                      00043 ;*******************************************************************************
                      00044 ; RESET VECTOR
                      00045 ;*******************************************************************************
                      00046 
                      00047 RES_VECT    CODE    0x0000              ; processor reset vector
0000   2???           00048     GOTO    START                       ; go to beginning of program
                      00049 
                      00050 ;*******************************************************************************
                      00051 ; ISR VECTOR
                      00052 ;*******************************************************************************
                      00053 
                      00054 ISR_VECTOR  CODE    0x0004
                      00055 
0004                  00056 PUSH:                       ; PUSHEA LOS DATOS DE STATUS Y W A UNA VARIABLE TEMPORAL EN CASO SE VEAN AFE
                            CTADOS EN LA INTERRUPCIÓN 
0004   138B           00057     BCF     INTCON, GIE     ; DESACTIVA INTERRUPCIONES PARA EVITAR INTERRUPCIONES MIENTRAS SE ESTÁ EN EL
                             ISR
0005   00??           00058     MOVWF   W_TEMP
0006   0E03           00059     SWAPF   STATUS, W
0007   00??           00060     MOVWF   STATUS_TEMP
                      00061 
0008                  00062 ISR:
0008   190B           00063     BTFSC   INTCON, T0IF
0009   2???           00064     CALL    BANDERA_TIMER0
                      00065         
000A                  00066 POP:                        ; POPEA LOS DATOS DE UNA VARIABLE TEMPORAL A STATUS Y W PARA RECUPERAR CUALQ
                            UIER DATO PERDIDO EN LA INTERRUPCIÓN
000A   0E??           00067     SWAPF   STATUS_TEMP, W
000B   0083           00068     MOVWF   STATUS
000C   0E??           00069     SWAPF   W_TEMP, F
000D   0E??           00070     SWAPF   W_TEMP, W
Warning[203]: Found opcode in column 1. (RETFIE)
000E   0009           00071 RETFIE                      ; INCLUYE LA REACTIVACION DEL GIE
                      00072 
000F                  00073 BANDERA_TIMER0:
000F   08??           00074     MOVFW   MODO
0010   3C00           00075     SUBLW   .0      ; VERIFICO QUE NO ESTÉ EN ALGÚN MODO DE EDICIÓN
MPASM 5.77                          CODE.ASM   11-21-2020  10:57:18         PAGE  3


LOC  OBJECT CODE     LINE SOURCE TEXT
  VALUE

0011   1903           00076     BTFSC   STATUS, Z
0012   2???           00077     GOTO    CERRADO
Warning[207]: Found label after column 1. (ABIERTO)
0013                  00078     ABIERTO:
0013   1800           00079         BTFSC   TOGGLE, 0
0014   2???           00080         GOTO    LOW_OPEN
Warning[207]: Found label after column 1. (HIGH_OPEN)
0015                  00081         HIGH_OPEN:
0015   30FD           00082             MOVLW   .253
0016   0081           00083             MOVWF   TMR0
0017   1407           00084             BSF     PORTC, 0
0018   1400           00085             BSF     TOGGLE, 0
0019   110B           00086             BCF     INTCON, T0IF
001A   0008           00087         RETURN
Warning[207]: Found label after column 1. (LOW_OPEN)
001B                  00088         LOW_OPEN:
001B   30B5           00089             MOVLW   .181
001C   0081           00090             MOVWF   TMR0
001D   1007           00091             BCF     PORTC, 0
001E   1000           00092             BCF     TOGGLE, 0
001F   110B           00093             BCF     INTCON, T0IF
0020   0008           00094         RETURN
                      00095     
Warning[207]: Found label after column 1. (CERRADO)
0021                  00096     CERRADO:
0021   1880           00097         BTFSC   TOGGLE, 1
0022   2???           00098         GOTO    LOW_CLOSED
Warning[207]: Found label after column 1. (HIGH_CLOSED)
0023                  00099         HIGH_CLOSED:
0023   30FA           00100             MOVLW   .250
0024   0081           00101             MOVWF   TMR0
0025   1407           00102             BSF     PORTC, 0
0026   1480           00103             BSF     TOGGLE, 1
0027   110B           00104             BCF     INTCON, T0IF
0028   0008           00105         RETURN
Warning[207]: Found label after column 1. (LOW_CLOSED)
0029                  00106         LOW_CLOSED:
0029   30B8           00107             MOVLW   .184
002A   0081           00108             MOVWF   TMR0
002B   1007           00109             BCF     PORTC, 0
002C   1080           00110             BCF     TOGGLE, 1
002D   110B           00111             BCF     INTCON, T0IF
002E   0008           00112         RETURN
                      00113 
                      00114 ;*******************************************************************************
                      00115 ; TABLA DE DISPLAYS
                      00116 ;*******************************************************************************
                      00117 
002F                  00118 TABLA:
002F   390F           00119     ANDLW   b'00001111' ; MASK
0030   0782           00120     ADDWF   PCL, F
0031   3488           00121     RETLW   b'10001000' ; 0
0032   34EB           00122     RETLW   b'11101011' ; 1
MPASM 5.77                          CODE.ASM   11-21-2020  10:57:18         PAGE  4


LOC  OBJECT CODE     LINE SOURCE TEXT
  VALUE

0033   344C           00123     RETLW   b'01001100' ; 2
0034   3449           00124     RETLW   b'01001001' ; 3
0035   342B           00125     RETLW   b'00101011' ; 4
0036   3419           00126     RETLW   b'00011001' ; 5
0037   3418           00127     RETLW   b'00011000' ; 6
0038   34CB           00128     RETLW   b'11001011' ; 7
0039   3408           00129     RETLW   b'00001000' ; 8
003A   340B           00130     RETLW   b'00001011' ; 9
003B   340A           00131     RETLW   b'00001010' ; A
003C   3438           00132     RETLW   b'00111000' ; b
003D   349C           00133     RETLW   b'10011100' ; C
003E   3468           00134     RETLW   b'01101000' ; d
003F   341C           00135     RETLW   b'00011100' ; E
0040   341E           00136     RETLW   b'00011110' ; F      
                      00137     
                      00138 ;*******************************************************************************
                      00139 ; MAIN PROGRAM
                      00140 ;*******************************************************************************
                      00141 
                      00142 MAIN_PROG   CODE     0x0100                 ; let linker place main program
                      00143 
0100                  00144 START
0100                  00145 SETUP:
0100   2???           00146     CALL    CONFIGURACION_BASE              ; EXPLICACIONES EN LA SECCIÓN DE CONFIGURACIONES
0101   2???           00147     CALL    CONFIGURACION_PWM
0102   2???           00148     CALL    CONFIGURACION_TIMER0
0103   2???           00149     CALL    CONFIGURACION_TIMER2
0104   2???           00150     CALL    CONFIGURACION_INTERRUPCION
0105   2???           00151     CALL    CONFIGURACION_ADC
                      00152     
                      00153 ;*******************************************************************************
                      00154 ; MAIN LOOP
                      00155 ;*******************************************************************************    
0106                  00156 LOOP:        
0106   1F86           00157     BTFSS   PORTB, RB7          ; REVISA SI EL BOTÓN DE CAMBIO DE ESTADO SE HA PRESIONADO
0107   2???           00158     CALL    ANTIR               ; INDICA QUE YA SE PRESIONÓ 
0108   1B86           00159     BTFSC   PORTB, RB7          ; NO EJECUTA LA INSTRUCCIÓN SI SIGUE PRESIONADO EL BOTÓN
0109   2???           00160     CALL    MODO_FUNCIONAMIENTO ; SE EJECUTA EL CAMBIO DE ESTADO
010A   2???           00161     CALL    CONVERSION_ADC
010B   2???           00162     GOTO    LOOP
                      00163 
                      00164 ;*******************************************************************************
                      00165 ; RUTINA DE SELECCIÓN DE MODOS DE FUNCIONAMIENTO
                      00166 ;*******************************************************************************    
010C                  00167 MODO_FUNCIONAMIENTO:
010C   08??           00168     MOVFW   FLAG_ANTIREBOTE
010D   3C01           00169     SUBLW   .1                  ; REVISA QUE SÍ HAYA PASADO POR EL ANTIREBOTE
010E   1D03           00170     BTFSS   STATUS, Z           ; SI NO PASÓ POR EL ANTIREBOTE, SIGNIFICA QUE NO SE PRESIONÓ EL BOTÓN Y 
                            NO EJECUTA LA INSTRUCCIÓN
Warning[203]: Found opcode in column 1. (RETURN)
010F   0008           00171 RETURN
0110   01??           00172     CLRF    FLAG_ANTIREBOTE     ; LIMPIA LA BANDERA PARA QUE SE PUEDA VOLVER A PRESIONAR EL BOTÓN SIN RE
                            BOTES
MPASM 5.77                          CODE.ASM   11-21-2020  10:57:18         PAGE  5


LOC  OBJECT CODE     LINE SOURCE TEXT
  VALUE

0111   08??           00173     MOVFW   MODO                
0112   3C01           00174     SUBLW   .1                  
0113   1903           00175     BTFSC   STATUS, Z
0114   2???           00176     GOTO    REINICIOA           ; SIRVE PARA QUE NO SE PASE DEL MODO 8
Warning[207]: Found label after column 1. (CONTEO)
0115                  00177     CONTEO:
Message[305]: Using default destination of 1 (file).
0115   0A??           00178         INCF    MODO
0116   0008           00179     RETURN
Warning[207]: Found label after column 1. (REINICIOA)
0117                  00180     REINICIOA:
0117   01??           00181         CLRF    MODO
0118   0008           00182     RETURN   
                      00183 
                      00184 ;*******************************************************************************
                      00185 ; RUTINA DE ANTIREBOTE
                      00186 ;*******************************************************************************        
0119                  00187 ANTIR:
0119   1400           00188     BSF   FLAG_ANTIREBOTE, 0    ; YA QUE SE USAN PULL UPS, ESTE MASKING ME PERMITE VER QUÉ VALOR SE COLO
                            CÓ EN CERO, ES DECIR, SE PRESIONÓ
Warning[203]: Found opcode in column 1. (RETURN)
011A   0008           00189 RETURN        
                      00190     
                      00191 ;*******************************************************************************
                      00192 ; RUTINA DE CONVERSION ADC
                      00193 ;*******************************************************************************         
011B                  00194 CONVERSION_ADC:
011B   1283 1303      00195     BANKSEL ADCON0
011D   3003           00196     MOVLW   b'00000011'                 
011E   009F           00197     MOVWF   ADCON0  
011F   2???           00198     CALL    DELAY
                      00199    
0120   149F           00200     BSF     ADCON0,GO
0121   189F           00201     BTFSC   ADCON0,GO 
0122   2???           00202     GOTO    $-1
                      00203     
0123   1283 1303      00204     BANKSEL ADRESH
0125   081E           00205     MOVFW   ADRESH
0126   00??           00206     MOVWF   VAR_ADCY    
                      00207     
0127   0C??           00208     RRF     VAR_ADCY, 0
0128   397F           00209     ANDLW   b'01111111'
0129   3E20           00210     ADDLW   .32
012A   009B           00211     MOVWF   CCPR2L 
                      00212     
012B   1283 1303      00213     BANKSEL ADCON0
012D   3013           00214     MOVLW   b'00010011'                 
012E   009F           00215     MOVWF   ADCON0
012F   2???           00216     CALL    DELAY
                      00217     
0130   149F           00218     BSF     ADCON0,GO
0131   189F           00219     BTFSC   ADCON0,GO 
0132   2???           00220     GOTO    $-1
MPASM 5.77                          CODE.ASM   11-21-2020  10:57:18         PAGE  6


LOC  OBJECT CODE     LINE SOURCE TEXT
  VALUE

                      00221     
0133   1283 1303      00222     BANKSEL ADRESH
0135   081E           00223     MOVFW   ADRESH
0136   00??           00224     MOVWF   VAR_ADCX
                      00225     
0137   0C??           00226     RRF     VAR_ADCX, 0
0138   397F           00227     ANDLW   b'01111111'
0139   3E20           00228     ADDLW   .32
013A   0095           00229     MOVWF   CCPR1L
Warning[203]: Found opcode in column 1. (RETURN)
013B   0008           00230 RETURN    
                      00231 
                      00232 ;*******************************************************************************
                      00233 ; RUTINA DE DELAYS
                      00234 ;*******************************************************************************                
013C                  00235 DELAY:
013C   3064           00236     MOVLW   .100                            
013D   00??           00237     MOVWF   CONT1
013E   0B??           00238     DECFSZ  CONT1, F
013F   2???           00239     GOTO    $-1                       
Warning[203]: Found opcode in column 1. (RETURN)
0140   0008           00240 RETURN    
                      00241   
0141                  00242 DELAY_BIG:
0141   30FF           00243     MOVLW   .255                            
0142   00??           00244     MOVWF   CONT1
0143   0B??           00245     DECFSZ  CONT1, F
0144   2???           00246     GOTO    $-1                       
0145   30FF           00247     MOVLW   .255                            
0146   00??           00248     MOVWF   CONT1
0147   0B??           00249     DECFSZ  CONT1, F
0148   2???           00250     GOTO    $-1                       
0149   30FF           00251     MOVLW   .255                          
014A   00??           00252     MOVWF   CONT1
014B   0B??           00253     DECFSZ  CONT1, F
014C   2???           00254     GOTO    $-1                       
Warning[203]: Found opcode in column 1. (RETURN)
014D   0008           00255 RETURN            
                      00256     
                      00257 ;*******************************************************************************
                      00258 ; CONFIGURACIONES
                      00259 ;*******************************************************************************         
014E                  00260 CONFIGURACION_BASE:
014E   1283 1303      00261     BANKSEL PORTA
0150   0185           00262     CLRF    PORTA               ; LIMPIA LOS PUERTOS PARA EVITAR QUE TENGAN CUALQUIER VALOR INICIAL DIST
                            INTO DE 0
0151   0186           00263     CLRF    PORTB
0152   0187           00264     CLRF    PORTC
0153   0188           00265     CLRF    PORTD
0154   0189           00266     CLRF    PORTE
                      00267 
0155   1683 1703      00268     BANKSEL ANSEL
Message[302]: Register in operand not in bank 0.  Ensure that bank bits are correct.
MPASM 5.77                          CODE.ASM   11-21-2020  10:57:18         PAGE  7


LOC  OBJECT CODE     LINE SOURCE TEXT
  VALUE

0157   0188           00269     CLRF    ANSEL
Message[302]: Register in operand not in bank 0.  Ensure that bank bits are correct.
0158   1408           00270     BSF     ANSEL, 0            ; POT EN X
Message[302]: Register in operand not in bank 0.  Ensure that bank bits are correct.
0159   1688           00271     BSF     ANSEL, 5            ; POT EN Y
Message[302]: Register in operand not in bank 0.  Ensure that bank bits are correct.
015A   0189           00272     CLRF    ANSELH              ; BORRA EL CONTROL DE ENTRADAS ANALÓGICAS       
                      00273 
015B   1683 1303      00274     BANKSEL TRISA
015D   3021           00275     MOVLW   b'00100001'         ; POT Y TRANSISTORES
Message[302]: Register in operand not in bank 0.  Ensure that bank bits are correct.
015E   0085           00276     MOVWF   TRISA
                      00277                 
015F   3080           00278     MOVLW   b'10000000'         ; PUSHES EN EL PUERTO B PARA INCLUIR LOS PULL UPS POR SOFTWARE - TIENE 4
                             SALIDAS PUES SE CONECTARON AHÍ LOS TRANSISTORES (NPN 3904)
Message[302]: Register in operand not in bank 0.  Ensure that bank bits are correct.
0160   0086           00279     MOVWF   TRISB
Message[302]: Register in operand not in bank 0.  Ensure that bank bits are correct.
0161   0095           00280     MOVWF   WPUB                ; PARA PULL UPS
Message[302]: Register in operand not in bank 0.  Ensure that bank bits are correct.
0162   1381           00281     BCF     OPTION_REG, 7
                      00282     
Message[302]: Register in operand not in bank 0.  Ensure that bank bits are correct.
0163   0187           00283     CLRF    TRISC               ; SIN USAR
Message[302]: Register in operand not in bank 0.  Ensure that bank bits are correct.
0164   0188           00284     CLRF    TRISD               ; PARA DISPLAY
                      00285     
Message[302]: Register in operand not in bank 0.  Ensure that bank bits are correct.
0165   0189           00286     CLRF    TRISE
                      00287     
0166   1283 1303      00288     BANKSEL PORTA
0168   01??           00289     CLRF    FLAG_ADC
0169   01??           00290     CLRF    FLAG_ANTIREBOTE
016A   01??           00291     CLRF    VAR_ADCX  
016B   01??           00292     CLRF    VAR_ADCY  
016C   01??           00293     CLRF    ITERACIONES
016D   01??           00294     CLRF    CONTROL
016E   01??           00295     CLRF    MODO
016F   01??           00296     CLRF    TOGGLE
0170   01??           00297     CLRF    CONT1
Warning[203]: Found opcode in column 1. (RETURN)
0171   0008           00298 RETURN
                      00299     
0172                  00300 CONFIGURACION_PWM:
Warning[207]: Found label after column 1. (SERVO1)
0172                  00301     SERVO1:
0172   1283 1303      00302     BANKSEL CCP1CON
0174   1397           00303     BCF     CCP1CON, 7
0175   1317           00304     BCF     CCP1CON, 6          ; 6 Y 7 PARA SINGLE OUTPUT
0176   1297           00305     BCF     CCP1CON, 5          
0177   1217           00306     BCF     CCP1CON, 4          ; BITS MENOS SIGNIFICATIVOS PARA EL ANCHO DE PULSO
0178   1597           00307     BSF     CCP1CON, 3
0179   1517           00308     BSF     CCP1CON, 2
MPASM 5.77                          CODE.ASM   11-21-2020  10:57:18         PAGE  8


LOC  OBJECT CODE     LINE SOURCE TEXT
  VALUE

017A   1097           00309     BCF     CCP1CON, 1
017B   1017           00310     BCF     CCP1CON, 0
Warning[207]: Found label after column 1. (SERVO2)
017C                  00311     SERVO2:
017C   1283 1303      00312     BANKSEL CCP2CON
017E   129D           00313     BCF     CCP2CON, 5          
017F   121D           00314     BCF     CCP2CON, 4          ; BITS MENOS SIGNIFICATIVOS PARA EL ANCHO DE PULSO
0180   159D           00315     BSF     CCP2CON, 3
0181   151D           00316     BSF     CCP2CON, 2
0182   149D           00317     BSF     CCP2CON, 1
0183   141D           00318     BSF     CCP2CON, 0
Warning[203]: Found opcode in column 1. (RETURN)
0184   0008           00319 RETURN    
                      00320     
0185                  00321 CONFIGURACION_TIMER0:
0185   1683 1303      00322     BANKSEL TRISA
0187   0064           00323     CLRWDT                      ; CONFIGURACIÓN PARA EL FUNCIONAMIENTO DEL TIMER0
0188   3057           00324     MOVLW   b'01010111'         ; PRESCALER DE 1:256 PARA PODER GENERAR INTERRUPCIONES DE 0.5ms
Message[302]: Register in operand not in bank 0.  Ensure that bank bits are correct.
0189   0081           00325     MOVWF   OPTION_REG 
018A   1283 1303      00326     BANKSEL PORTA
Warning[203]: Found opcode in column 1. (RETURN)
018C   0008           00327 RETURN 
                      00328     
018D                  00329 CONFIGURACION_TIMER2:
018D   1283 1303      00330     BANKSEL PORTA
018F   30FF           00331     MOVLW   b'11111111' ; PRESCALER Y POSTSCALER DE 16 CADA UNO Y TIMER 2 ACTIVADO
0190   0092           00332     MOVWF   T2CON    
Warning[203]: Found opcode in column 1. (RETURN)
0191   0008           00333 RETURN
                      00334     
0192                  00335 CONFIGURACION_INTERRUPCION:
0192   1683 1303      00336     BANKSEL TRISA
0194   168B           00337     BSF     INTCON, T0IE
                      00338     
0195   30BB           00339     MOVLW   .187                ; TECHO PARA TIMER2 - PARA QUE EL PWM FUNCIONE CON 3ms
Message[302]: Register in operand not in bank 0.  Ensure that bank bits are correct.
0196   0092           00340     MOVWF   PR2                 ; PARA PULSO DE 0° --> CCPR1L = 0x20 ^ CCP1CON<5:4> = b'00
                      00341                                 ; PARA PULSO DE 180° --> CCP1L = 0x9D ^ CCP1CON<5:4> = b'00
                      00342                                 ; FUNCION PARA CONVERSION DE DATOS ADC PARA METER EN EL CCPR1L:
                      00343                                 ; CCP1RL = 32 + ADC/2
                      00344     
0197   1283 1303      00345     BANKSEL PORTA
0199   178B           00346     BSF     INTCON, GIE         ; HABILITA LAS INTERRUPCIONES
019A   110B           00347     BCF     INTCON, T0IF        ; PARA ASEGURARSE DE QUE NO TENGA OVERFLOW AL INICIO
Warning[203]: Found opcode in column 1. (RETURN)
019B   0008           00348 RETURN
                      00349 
019C                  00350 CONFIGURACION_ADC:    
019C   1683 1303      00351     BANKSEL ADCON1 
Message[302]: Register in operand not in bank 0.  Ensure that bank bits are correct.
019E   019F           00352     CLRF    ADCON1              ; VDD Y VSS COMO REFERENCIA / JUSTIFICADO A LA IZQUIERDA
                      00353     
MPASM 5.77                          CODE.ASM   11-21-2020  10:57:18         PAGE  9


LOC  OBJECT CODE     LINE SOURCE TEXT
  VALUE

019F   1283 1303      00354     BANKSEL ADCON0 
01A1   141F           00355     BSF     ADCON0, 0
01A2   149F           00356     BSF     ADCON0, 1  
01A3   111F           00357     BCF     ADCON0, 2
01A4   119F           00358     BCF     ADCON0, 3
01A5   129F           00359     BCF     ADCON0, 5
01A6   131F           00360     BCF     ADCON0, 6
01A7   139F           00361     BCF     ADCON0, 7   
Warning[203]: Found opcode in column 1. (RETURN)
01A8   0008           00362 RETURN
                      00363     
                      00364 ;*******************************************************************************
                      00365     
20D4 3FFF             00366     END 
MPASM 5.77                          CODE.ASM   11-21-2020  10:57:18         PAGE 10


SYMBOL TABLE
  LABEL                             VALUE 

ABDEN                             00000000
ABDOVF                            00000007
ABIERTO                           00000013
ACKDT                             00000005
ACKEN                             00000004
ACKSTAT                           00000006
ADCON0                            0000001F
ADCON1                            0000009F
ADCS0                             00000006
ADCS1                             00000007
ADDEN                             00000003
ADFM                              00000007
ADIE                              00000006
ADIF                              00000006
ADON                              00000000
ADRESH                            0000001E
ADRESL                            0000009E
ANS0                              00000000
ANS1                              00000001
ANS10                             00000002
ANS11                             00000003
ANS12                             00000004
ANS13                             00000005
ANS2                              00000002
ANS3                              00000003
ANS4                              00000004
ANS5                              00000005
ANS6                              00000006
ANS7                              00000007
ANS8                              00000000
ANS9                              00000001
ANSEL                             00000188
ANSELH                            00000189
ANTIR                             00000119
BANDERA_TIMER0                    0000000F
BAUDCTL                           00000187
BCLIE                             00000003
BCLIF                             00000003
BF                                00000000
BRG0                              00000000
BRG1                              00000001
BRG10                             00000002
BRG11                             00000003
BRG12                             00000004
BRG13                             00000005
BRG14                             00000006
BRG15                             00000007
BRG16                             00000003
BRG2                              00000002
BRG3                              00000003
BRG4                              00000004
BRG5                              00000005
BRG6                              00000006
MPASM 5.77                          CODE.ASM   11-21-2020  10:57:18         PAGE 11


SYMBOL TABLE
  LABEL                             VALUE 

BRG7                              00000007
BRG8                              00000000
BRG9                              00000001
BRGH                              00000002
C                                 00000000
C1CH0                             00000000
C1CH1                             00000001
C1IE                              00000005
C1IF                              00000005
C1OE                              00000005
C1ON                              00000007
C1OUT                             00000006
C1POL                             00000004
C1R                               00000002
C1RSEL                            00000005
C1SEN                             00000005
C2CH0                             00000000
C2CH1                             00000001
C2IE                              00000006
C2IF                              00000006
C2OE                              00000005
C2ON                              00000007
C2OUT                             00000006
C2POL                             00000004
C2R                               00000002
C2REN                             00000004
C2RSEL                            00000004
C2SYNC                            00000000
CCP1CON                           00000017
CCP1IE                            00000002
CCP1IF                            00000002
CCP1M0                            00000000
CCP1M1                            00000001
CCP1M2                            00000002
CCP1M3                            00000003
CCP1X                             00000005
CCP1Y                             00000004
CCP2CON                           0000001D
CCP2IE                            00000000
CCP2IF                            00000000
CCP2M0                            00000000
CCP2M1                            00000001
CCP2M2                            00000002
CCP2M3                            00000003
CCP2X                             00000005
CCP2Y                             00000004
CCPR1                             00000015
CCPR1H                            00000016
CCPR1L                            00000015
CCPR2                             0000001B
CCPR2H                            0000001C
CCPR2L                            0000001B
CERRADO                           00000021
MPASM 5.77                          CODE.ASM   11-21-2020  10:57:18         PAGE 12


SYMBOL TABLE
  LABEL                             VALUE 

CHS0                              00000002
CHS1                              00000003
CHS2                              00000004
CHS3                              00000005
CKE                               00000006
CKP                               00000004
CM1CON0                           00000107
CM2CON0                           00000108
CM2CON1                           00000109
CONFIGURACION_ADC                 0000019C
CONFIGURACION_BASE                0000014E
CONFIGURACION_INTERRUPCION        00000192
CONFIGURACION_PWM                 00000172
CONFIGURACION_TIMER0              00000185
CONFIGURACION_TIMER2              0000018D
CONT1                             0000000F
CONTEO                            00000115
CONTROL                           0000000C
CONVERSION_ADC                    0000011B
CREN                              00000004
CSRC                              00000007
D                                 00000005
DATA_ADDRESS                      00000005
DC                                00000001
DC1B0                             00000004
DC1B1                             00000005
DC2B0                             00000004
DC2B1                             00000005
DELAY                             0000013C
DELAY_BIG                         00000141
DISPLAY_HX                        00000007
DISPLAY_HY                        00000009
DISPLAY_LX                        00000008
DISPLAY_LY                        0000000A
D_A                               00000005
D_NOT_A                           00000005
ECCPAS                            0000009C
ECCPAS0                           00000004
ECCPAS1                           00000005
ECCPAS2                           00000006
ECCPASE                           00000007
EEADR                             0000010D
EEADRH                            0000010F
EECON1                            0000018C
EECON2                            0000018D
EEDAT                             0000010C
EEDATA                            0000010C
EEDATH                            0000010E
EEIE                              00000004
EEIF                              00000004
EEPGD                             00000007
F                                 00000001
FERR                              00000002
MPASM 5.77                          CODE.ASM   11-21-2020  10:57:18         PAGE 13


SYMBOL TABLE
  LABEL                             VALUE 

FLAG                              00000005
FLAG_ADC                          00000004
FLAG_ANTIREBOTE                   00000006
FSR                               00000004
FVREN                             00000000
GCEN                              00000007
GIE                               00000007
GO                                00000001
GO_DONE                           00000001
GO_NOT_DONE                       00000001
HIGH_CLOSED                       00000023
HIGH_OPEN                         00000015
HTS                               00000002
I2C_DATA                          00000005
I2C_READ                          00000002
I2C_START                         00000003
I2C_STOP                          00000004
INDF                              00000000
INTCON                            0000000B
INTE                              00000004
INTEDG                            00000006
INTF                              00000001
IOCB                              00000096
IOCB0                             00000000
IOCB1                             00000001
IOCB2                             00000002
IOCB3                             00000003
IOCB4                             00000004
IOCB5                             00000005
IOCB6                             00000006
IOCB7                             00000007
IRCF0                             00000004
IRCF1                             00000005
IRCF2                             00000006
IRP                               00000007
ISR                               00000008
ITERACIONES                       0000000B
LOOP                              00000106
LOW_CLOSED                        00000029
LOW_OPEN                          0000001B
LTS                               00000001
MC1OUT                            00000007
MC2OUT                            00000006
MODO                              0000000D
MODO_FUNCIONAMIENTO               0000010C
MSK                               00000093
MSK0                              00000000
MSK1                              00000001
MSK2                              00000002
MSK3                              00000003
MSK4                              00000004
MSK5                              00000005
MSK6                              00000006
MPASM 5.77                          CODE.ASM   11-21-2020  10:57:18         PAGE 14


SYMBOL TABLE
  LABEL                             VALUE 

MSK7                              00000007
NOT_A                             00000005
NOT_ADDRESS                       00000005
NOT_BO                            00000000
NOT_BOR                           00000000
NOT_DONE                          00000001
NOT_PD                            00000003
NOT_POR                           00000001
NOT_RBPU                          00000007
NOT_RC8                           00000006
NOT_T1SYNC                        00000002
NOT_TO                            00000004
NOT_TX8                           00000006
NOT_W                             00000002
NOT_WRITE                         00000002
OERR                              00000001
OPTION_REG                        00000081
OSCCON                            0000008F
OSCTUNE                           00000090
OSFIE                             00000007
OSFIF                             00000007
OSTS                              00000003
P                                 00000004
P1M0                              00000006
P1M1                              00000007
PCL                               00000002
PCLATH                            0000000A
PCON                              0000008E
PDC0                              00000000
PDC1                              00000001
PDC2                              00000002
PDC3                              00000003
PDC4                              00000004
PDC5                              00000005
PDC6                              00000006
PEIE                              00000006
PEN                               00000002
PIE1                              0000008C
PIE2                              0000008D
PIR1                              0000000C
PIR2                              0000000D
POP                               0000000A
PORTA                             00000005
PORTB                             00000006
PORTC                             00000007
PORTD                             00000008
PORTE                             00000009
PR2                               00000092
PRSEN                             00000007
PS0                               00000000
PS1                               00000001
PS2                               00000002
PSA                               00000003
MPASM 5.77                          CODE.ASM   11-21-2020  10:57:18         PAGE 15


SYMBOL TABLE
  LABEL                             VALUE 

PSSAC0                            00000002
PSSAC1                            00000003
PSSBD0                            00000000
PSSBD1                            00000001
PSTRCON                           0000009D
PULSR                             00000002
PULSS                             00000003
PUSH                              00000004
PWM1CON                           0000009B
R                                 00000002
RA0                               00000000
RA1                               00000001
RA2                               00000002
RA3                               00000003
RA4                               00000004
RA5                               00000005
RA6                               00000006
RA7                               00000007
RB0                               00000000
RB1                               00000001
RB2                               00000002
RB3                               00000003
RB4                               00000004
RB5                               00000005
RB6                               00000006
RB7                               00000007
RBIE                              00000003
RBIF                              00000000
RC0                               00000000
RC1                               00000001
RC2                               00000002
RC3                               00000003
RC4                               00000004
RC5                               00000005
RC6                               00000006
RC7                               00000007
RC8_9                             00000006
RC9                               00000006
RCD8                              00000000
RCEN                              00000003
RCIDL                             00000006
RCIE                              00000005
RCIF                              00000005
RCREG                             0000001A
RCSTA                             00000018
RD                                00000000
RD0                               00000000
RD1                               00000001
RD2                               00000002
RD3                               00000003
RD4                               00000004
RD5                               00000005
RD6                               00000006
MPASM 5.77                          CODE.ASM   11-21-2020  10:57:18         PAGE 16


SYMBOL TABLE
  LABEL                             VALUE 

RD7                               00000007
RE0                               00000000
RE1                               00000001
RE2                               00000002
RE3                               00000003
READ_WRITE                        00000002
REINICIOA                         00000117
RP0                               00000005
RP1                               00000006
RSEN                              00000001
RX9                               00000006
RX9D                              00000000
R_NOT_W                           00000002
R_W                               00000002
S                                 00000003
SBOREN                            00000004
SCKP                              00000004
SCS                               00000000
SEN                               00000000
SENDB                             00000003
SERVO1                            00000172
SERVO2                            0000017C
SETUP                             00000100
SMP                               00000007
SPBRG                             00000099
SPBRGH                            0000009A
SPEN                              00000007
SR0                               00000006
SR1                               00000007
SRCON                             00000185
SREN                              00000005
SSPADD                            00000093
SSPBUF                            00000013
SSPCON                            00000014
SSPCON2                           00000091
SSPEN                             00000005
SSPIE                             00000003
SSPIF                             00000003
SSPM0                             00000000
SSPM1                             00000001
SSPM2                             00000002
SSPM3                             00000003
SSPMSK                            00000093
SSPOV                             00000006
SSPSTAT                           00000094
START                             00000100
STATUS                            00000003
STATUS_TEMP                       00000001
STRA                              00000000
STRB                              00000001
STRC                              00000002
STRD                              00000003
STRSYNC                           00000004
MPASM 5.77                          CODE.ASM   11-21-2020  10:57:18         PAGE 17


SYMBOL TABLE
  LABEL                             VALUE 

SWDTEN                            00000000
SYNC                              00000004
T0CS                              00000005
T0IE                              00000005
T0IF                              00000002
T0SE                              00000004
T1CKPS0                           00000004
T1CKPS1                           00000005
T1CON                             00000010
T1GINV                            00000007
T1GIV                             00000007
T1GSS                             00000001
T1INSYNC                          00000002
T1OSCEN                           00000003
T1SYNC                            00000002
T2CKPS0                           00000000
T2CKPS1                           00000001
T2CON                             00000012
TABLA                             0000002F
TMR0                              00000001
TMR0IE                            00000005
TMR0IF                            00000002
TMR1                              0000000E
TMR1CS                            00000001
TMR1GE                            00000006
TMR1H                             0000000F
TMR1IE                            00000000
TMR1IF                            00000000
TMR1L                             0000000E
TMR1ON                            00000000
TMR2                              00000011
TMR2IE                            00000001
TMR2IF                            00000001
TMR2ON                            00000002
TOGGLE                            0000000E
TOUTPS0                           00000003
TOUTPS1                           00000004
TOUTPS2                           00000005
TOUTPS3                           00000006
TRISA                             00000085
TRISA0                            00000000
TRISA1                            00000001
TRISA2                            00000002
TRISA3                            00000003
TRISA4                            00000004
TRISA5                            00000005
TRISA6                            00000006
TRISA7                            00000007
TRISB                             00000086
TRISB0                            00000000
TRISB1                            00000001
TRISB2                            00000002
TRISB3                            00000003
MPASM 5.77                          CODE.ASM   11-21-2020  10:57:18         PAGE 18


SYMBOL TABLE
  LABEL                             VALUE 

TRISB4                            00000004
TRISB5                            00000005
TRISB6                            00000006
TRISB7                            00000007
TRISC                             00000087
TRISC0                            00000000
TRISC1                            00000001
TRISC2                            00000002
TRISC3                            00000003
TRISC4                            00000004
TRISC5                            00000005
TRISC6                            00000006
TRISC7                            00000007
TRISD                             00000088
TRISD0                            00000000
TRISD1                            00000001
TRISD2                            00000002
TRISD3                            00000003
TRISD4                            00000004
TRISD5                            00000005
TRISD6                            00000006
TRISD7                            00000007
TRISE                             00000089
TRISE0                            00000000
TRISE1                            00000001
TRISE2                            00000002
TRISE3                            00000003
TRMT                              00000001
TUN0                              00000000
TUN1                              00000001
TUN2                              00000002
TUN3                              00000003
TUN4                              00000004
TX8_9                             00000006
TX9                               00000006
TX9D                              00000000
TXD8                              00000000
TXEN                              00000005
TXIE                              00000004
TXIF                              00000004
TXREG                             00000019
TXSTA                             00000098
UA                                00000001
ULPWUE                            00000005
ULPWUIE                           00000002
ULPWUIF                           00000002
VAR_ADCX                          00000002
VAR_ADCY                          00000003
VCFG0                             00000004
VCFG1                             00000005
VR0                               00000000
VR1                               00000001
VR2                               00000002
MPASM 5.77                          CODE.ASM   11-21-2020  10:57:18         PAGE 19


SYMBOL TABLE
  LABEL                             VALUE 

VR3                               00000003
VRCON                             00000097
VREN                              00000007
VROE                              00000006
VRR                               00000005
VRSS                              00000004
W                                 00000000
WCOL                              00000007
WDTCON                            00000105
WDTPS0                            00000001
WDTPS1                            00000002
WDTPS2                            00000003
WDTPS3                            00000004
WPUB                              00000095
WPUB0                             00000000
WPUB1                             00000001
WPUB2                             00000002
WPUB3                             00000003
WPUB4                             00000004
WPUB5                             00000005
WPUB6                             00000006
WPUB7                             00000007
WR                                00000001
WREN                              00000002
WRERR                             00000003
WUE                               00000001
W_TEMP                            00000000
Z                                 00000002
_BOR21V                           00003EFF
_BOR40V                           00003FFF
_BOR4V_BOR21V                     00003EFF
_BOR4V_BOR40V                     00003FFF
_BOREN_NSLEEP                     00003EFF
_BOREN_OFF                        00003CFF
_BOREN_ON                         00003FFF
_BOREN_SBODEN                     00003DFF
_BOR_NSLEEP                       00003EFF
_BOR_OFF                          00003CFF
_BOR_ON                           00003FFF
_BOR_SBODEN                       00003DFF
_CONFIG1                          00002007
_CONFIG2                          00002008
_CPD_OFF                          00003FFF
_CPD_ON                           00003F7F
_CP_OFF                           00003FFF
_CP_ON                            00003FBF
_DEBUG_OFF                        00003FFF
_DEBUG_ON                         00001FFF
_DEVID1                           00002006
_EC_OSC                           00003FFB
_EXTRC                            00003FFF
_EXTRCIO                          00003FFE
_EXTRC_OSC_CLKOUT                 00003FFF
MPASM 5.77                          CODE.ASM   11-21-2020  10:57:18         PAGE 20


SYMBOL TABLE
  LABEL                             VALUE 

_EXTRC_OSC_NOCLKOUT               00003FFE
_FCMEN_OFF                        000037FF
_FCMEN_ON                         00003FFF
_FOSC_EC                          00003FFB
_FOSC_EXTRC_CLKOUT                00003FFF
_FOSC_EXTRC_NOCLKOUT              00003FFE
_FOSC_HS                          00003FFA
_FOSC_INTRC_CLKOUT                00003FFD
_FOSC_INTRC_NOCLKOUT              00003FFC
_FOSC_LP                          00003FF8
_FOSC_XT                          00003FF9
_HS_OSC                           00003FFA
_IDLOC0                           00002000
_IDLOC1                           00002001
_IDLOC2                           00002002
_IDLOC3                           00002003
_IESO_OFF                         00003BFF
_IESO_ON                          00003FFF
_INTOSC                           00003FFD
_INTOSCIO                         00003FFC
_INTRC_OSC_CLKOUT                 00003FFD
_INTRC_OSC_NOCLKOUT               00003FFC
_LP_OSC                           00003FF8
_LVP_OFF                          00002FFF
_LVP_ON                           00003FFF
_MAIN_PROG_0122                   00000122
_MAIN_PROG_0132                   00000132
_MAIN_PROG_013F                   0000013F
_MAIN_PROG_0144                   00000144
_MAIN_PROG_0148                   00000148
_MAIN_PROG_014C                   0000014C
_MCLRE_OFF                        00003FDF
_MCLRE_ON                         00003FFF
_PWRTE_OFF                        00003FFF
_PWRTE_ON                         00003FEF
_WDTE_OFF                         00003FF7
_WDTE_ON                          00003FFF
_WDT_OFF                          00003FF7
_WDT_ON                           00003FFF
_WRT_1FOURTH                      00003BFF
_WRT_256                          00003DFF
_WRT_HALF                         000039FF
_WRT_OFF                          00003FFF
_XT_OSC                           00003FF9
__16F887                          00000001

Errors   :     0
Warnings :    38 reported,     0 suppressed
Messages :    15 reported,     0 suppressed

