MPASM 5.77                          CODE.ASM   11-21-2020  23:16:39         PAGE  1


LOC  OBJECT CODE     LINE SOURCE TEXT
  VALUE

                      00001 ;*******************************************************************************
                      00002 ;                                                                              *
                      00003 ;    Filename:              Code -> code.asm                                   *
                      00004 ;    Date:                  03/11/2020                                         *
                      00005 ;    File Version:          v.1                                                *
                      00006 ;    Author:                Ricardo Pellecer Orellana                          *
                      00007 ;    Company:               UVG                                                *
                      00008 ;    Description:           PROYECTO FINAL                                     *
                      00009 ;                                                                              *
                      00010 ;*******************************************************************************
                      00011 
                      00012 #include "p16f887.inc"
                      00001         LIST
                      00002 
                      00003 ;==========================================================================
                      00004 ; Build date : Nov 22 2017
                      00005 ;  MPASM PIC16F887 processor include
                      00006 ; 
                      00007 ;  (c) Copyright 1999-2017 Microchip Technology, All rights reserved
                      00008 ;==========================================================================
                      00009 
                      00810         LIST
                      00013 
                      00014 ; CONFIG1
                      00015 ; __config 0xE0D4
2007   20D4           00016  __CONFIG _CONFIG1, _FOSC_INTRC_NOCLKOUT & _WDTE_OFF & _PWRTE_OFF & _MCLRE_OFF & _CP_OFF & _CPD_OFF & _B
                            OREN_OFF & _IESO_OFF & _FCMEN_OFF & _LVP_OFF
                      00017 ; CONFIG2
                      00018 ; __config 0xFFFF
2008   3FFF           00019  __CONFIG _CONFIG2, _BOR4V_BOR40V & _WRT_OFF
                      00020  
                      00021 ; TODO PLACE VARIABLE DEFINITIONS GO HERE
                      00022 
                      00023  
                      00024 GPR_VAR                         UDATA
Warning[207]: Found label after column 1. (W_TEMP)
0000                  00025     W_TEMP                      RES         1   ; PARA GUARDAR INFO MIENTRAS SE EJECUTA LA INTERRUPCIÓN
Warning[207]: Found label after column 1. (STATUS_TEMP)
0001                  00026     STATUS_TEMP                 RES         1
Warning[207]: Found label after column 1. (VAR_ADCX)
0002                  00027     VAR_ADCX                    RES         1
Warning[207]: Found label after column 1. (VAR_ADCY)
0003                  00028     VAR_ADCY                    RES         1
Warning[207]: Found label after column 1. (FLAG_ANTIREBOTE)
0004                  00029     FLAG_ANTIREBOTE             RES         1
Warning[207]: Found label after column 1. (MODO)
0005                  00030     MODO                        RES         1
Warning[207]: Found label after column 1. (ALTO)
0006                  00031     ALTO                        RES         1
Warning[207]: Found label after column 1. (BAJO)
0007                  00032     BAJO                        RES         1
Warning[207]: Found label after column 1. (TOGGLE)
0008                  00033     TOGGLE                      RES         1
MPASM 5.77                          CODE.ASM   11-21-2020  23:16:39         PAGE  2


LOC  OBJECT CODE     LINE SOURCE TEXT
  VALUE

Warning[207]: Found label after column 1. (CONT1)
0009                  00034     CONT1                       RES         1
Warning[207]: Found label after column 1. (RXB0)
000A                  00035     RXB0                        RES         1   ; 
Warning[207]: Found label after column 1. (RXB1)
000B                  00036     RXB1                        RES         1   ; 
Warning[207]: Found label after column 1. (RXB2)
000C                  00037     RXB2                        RES         1   ; 
Warning[207]: Found label after column 1. (RXB3)
000D                  00038     RXB3                        RES         1   ; 
Warning[207]: Found label after column 1. (RXB4)
000E                  00039     RXB4                        RES         1   ; 
Warning[207]: Found label after column 1. (RXB5)
000F                  00040     RXB5                        RES         1   ; 
Warning[207]: Found label after column 1. (RXB6)
0010                  00041     RXB6                        RES         1   ; 
Warning[207]: Found label after column 1. (RXB7)
0011                  00042     RXB7                        RES         1   ; 
Warning[207]: Found label after column 1. (SERVO_GARRA)
0012                  00043     SERVO_GARRA                 RES         1   ; 
Warning[207]: Found label after column 1. (SERVO_EJE1)
0013                  00044     SERVO_EJE1                  RES         1   ; 
Warning[207]: Found label after column 1. (SERVO_EJE2)
0014                  00045     SERVO_EJE2                  RES         1   ; 
Warning[207]: Found label after column 1. (SERVO_FUN)
0015                  00046     SERVO_FUN                   RES         1   ; 
Warning[207]: Found label after column 1. (CUENTARX)
0016                  00047     CUENTARX                    RES         1   ; 
                      00048                         
                      00049 
                      00050 ;*******************************************************************************
                      00051 ; RESET VECTOR
                      00052 ;*******************************************************************************
                      00053 
                      00054 RES_VECT    CODE    0x0000              ; processor reset vector
0000   2???           00055     GOTO    START                       ; go to beginning of program
                      00056 
                      00057 ;*******************************************************************************
                      00058 ; ISR VECTOR
                      00059 ;*******************************************************************************
                      00060 
                      00061 ISR_VECTOR  CODE    0x0004
                      00062 
0004                  00063 PUSH:                       ; PUSHEA LOS DATOS DE STATUS Y W A UNA VARIABLE TEMPORAL EN CASO SE VEAN AFE
                            CTADOS EN LA INTERRUPCIÓN 
0004   138B           00064     BCF     INTCON, GIE     ; DESACTIVA INTERRUPCIONES PARA EVITAR INTERRUPCIONES MIENTRAS SE ESTÁ EN EL
                             ISR
0005   00??           00065     MOVWF   W_TEMP
0006   0E03           00066     SWAPF   STATUS, W
0007   00??           00067     MOVWF   STATUS_TEMP
                      00068 
0008                  00069 ISR:
0008   190B           00070     BTFSC   INTCON, T0IF
MPASM 5.77                          CODE.ASM   11-21-2020  23:16:39         PAGE  3


LOC  OBJECT CODE     LINE SOURCE TEXT
  VALUE

0009   2???           00071     CALL    BANDERA_TIMER0
000A   1A8C           00072     BTFSC   PIR1, RCIF
000B   2???           00073     CALL    BANDERA_RX
                      00074         
000C                  00075 POP:                        ; POPEA LOS DATOS DE UNA VARIABLE TEMPORAL A STATUS Y W PARA RECUPERAR CUALQ
                            UIER DATO PERDIDO EN LA INTERRUPCIÓN
000C   0E??           00076     SWAPF   STATUS_TEMP, W
000D   0083           00077     MOVWF   STATUS
000E   0E??           00078     SWAPF   W_TEMP, F
000F   0E??           00079     SWAPF   W_TEMP, W
Warning[203]: Found opcode in column 1. (RETFIE)
0010   0009           00080 RETFIE                      ; INCLUYE LA REACTIVACION DEL GIE
                      00081 
0011                  00082 BANDERA_TIMER0:
0011   1800           00083     BTFSC   TOGGLE, 0
0012   2???           00084     GOTO    LOW_OPEN
Warning[207]: Found label after column 1. (HIGH_OPEN)
0013                  00085     HIGH_OPEN:
0013   08??           00086         MOVFW   BAJO
0014   0081           00087         MOVWF   TMR0
0015   1407           00088         BSF     PORTC, 0
0016   1400           00089         BSF     TOGGLE, 0
0017   110B           00090         BCF     INTCON, T0IF
0018   0008           00091     RETURN
Warning[207]: Found label after column 1. (LOW_OPEN)
0019                  00092     LOW_OPEN:
0019   08??           00093         MOVFW   ALTO
001A   0081           00094         MOVWF   TMR0
001B   1007           00095         BCF     PORTC, 0
001C   1000           00096         BCF     TOGGLE, 0
001D   110B           00097         BCF     INTCON, T0IF
001E   0008           00098     RETURN
                      00099 
001F                  00100 BANDERA_RX:    
001F   0A??           00101     INCF    CUENTARX,1  
0020   08??           00102     MOVFW   RXB6                    
0021   00??           00103     MOVWF   RXB7
                      00104     
0022   08??           00105     MOVFW   RXB5                    
0023   00??           00106     MOVWF   RXB6
                      00107     
0024   08??           00108     MOVFW   RXB4                    
0025   00??           00109     MOVWF   RXB5
                      00110     
0026   08??           00111     MOVFW   RXB3                    
0027   00??           00112     MOVWF   RXB4
                      00113     
0028   08??           00114     MOVFW   RXB2                    
0029   00??           00115     MOVWF   RXB3        
                      00116     
002A   08??           00117     MOVFW   RXB1                    
002B   00??           00118     MOVWF   RXB2
                      00119     
MPASM 5.77                          CODE.ASM   11-21-2020  23:16:39         PAGE  4


LOC  OBJECT CODE     LINE SOURCE TEXT
  VALUE

002C   08??           00120     MOVFW   RXB0                    
002D   00??           00121     MOVWF   RXB1
                      00122         
002E   081A           00123     MOVFW   RCREG                   
002F   00??           00124     MOVWF   RXB0                       
                      00125     
0030   3A0A           00126     XORLW   .10                     
0031   1903           00127     BTFSC   STATUS,Z                
0032   2???           00128     GOTO    VERIFICACION
0033   0008           00129     RETURN
                      00130     
Warning[207]: Found label after column 1. (VERIFICACION)
0034                  00131     VERIFICACION:  
0034   3008           00132         MOVLW   .8                          
0035   02??           00133         SUBWF   CUENTARX,W
0036   1D03           00134         BTFSS   STATUS,Z
0037   2???           00135         GOTO    ERRONEO
                      00136 
0038   302C           00137         MOVLW   .44             
0039   02??           00138         SUBWF   RXB2,W
003A   1D03           00139         BTFSS   STATUS,Z
003B   2???           00140         GOTO    ERRONEO
                      00141 
003C   302C           00142         MOVLW   .44             
003D   02??           00143         SUBWF   RXB4,W
003E   1D03           00144         BTFSS   STATUS,Z
003F   2???           00145         GOTO    ERRONEO
                      00146         
0040   302C           00147         MOVLW   .44             
0041   02??           00148         SUBWF   RXB6,W
0042   1D03           00149         BTFSS   STATUS,Z
0043   2???           00150         GOTO    ERRONEO
                      00151 
0044   3030           00152         MOVLW   .48                 
0045   02??           00153         SUBWF   RXB1,W
0046   00??           00154         MOVWF   SERVO_GARRA
                      00155 
0047   3030           00156         MOVLW   .48                
0048   02??           00157         SUBWF   RXB3,W
0049   00??           00158         MOVWF   SERVO_EJE1
                      00159 
004A   3030           00160         MOVLW   .48                
004B   02??           00161         SUBWF   RXB5,W
004C   00??           00162         MOVWF   SERVO_EJE2
                      00163 
004D   3030           00164         MOVLW   .48             
004E   02??           00165         SUBWF   RXB7,W
004F   00??           00166         MOVWF   SERVO_FUN 
0050   01??           00167         CLRF    CUENTARX
0051   1706           00168         BSF     PORTB, 6
0052   0008           00169         RETURN
                      00170 
Warning[207]: Found label after column 1. (ERRONEO)
MPASM 5.77                          CODE.ASM   11-21-2020  23:16:39         PAGE  5


LOC  OBJECT CODE     LINE SOURCE TEXT
  VALUE

0053                  00171     ERRONEO:
0053   01??           00172         CLRF    CUENTARX                
0054   0008           00173         RETURN      
                      00174     
                      00175 ;*******************************************************************************
                      00176 ; MAIN PROGRAM
                      00177 ;*******************************************************************************
                      00178 
                      00179 MAIN_PROG   CODE     0x0100                 ; let linker place main program
                      00180 
0100                  00181 START
0100                  00182 SETUP:
0100   2???           00183     CALL    CONFIGURACION_BASE              ; EXPLICACIONES EN LA SECCIÓN DE CONFIGURACIONES
0101   2???           00184     CALL    CONFIGURACION_PWM
0102   2???           00185     CALL    CONFIGURACION_TIMER0
0103   2???           00186     CALL    CONFIGURACION_TIMER2
0104   2???           00187     CALL    CONFIGURACION_INTERRUPCION
0105   2???           00188     CALL    CONFIGURACION_ADC
0106   2???           00189     CALL    CONFIGURACION_TX_9600
0107   2???           00190     CALL    CONFIGURACION_RX
                      00191     
                      00192 ;*******************************************************************************
                      00193 ; MAIN LOOP
                      00194 ;*******************************************************************************    
0108                  00195 LOOP:  
0108   3009           00196     MOVLW   .9
Message[305]: Using default destination of 1 (file).
0109   02??           00197     SUBWF   SERVO_FUN
010A   1903           00198     BTFSC   STATUS, Z
010B   2???           00199     GOTO    AUTOMATIC
Warning[207]: Found label after column 1. (MANUAL)
010C                  00200     MANUAL:
010C   1F86           00201         BTFSS   PORTB, RB7              ; REVISA SI EL BOTÓN DE CAMBIO DE ESTADO SE HA PRESIONADO
010D   2???           00202         CALL    ANTIR           ; INDICA QUE YA SE PRESIONÓ 
010E   1B86           00203         BTFSC   PORTB, RB7              ; NO EJECUTA LA INSTRUCCIÓN SI SIGUE PRESIONADO EL BOTÓN
010F   2???           00204         CALL    MODO_FUNCIONAMIENTO     ; SE EJECUTA EL CAMBIO DE ESTADO
0110   2???           00205         CALL    CONVERSION_ADC
0111   2???           00206         GOTO    LOOP
Warning[207]: Found label after column 1. (AUTOMATIC)
0112                  00207     AUTOMATIC:
0112   3009           00208         MOVLW   .9
Message[305]: Using default destination of 1 (file).
0113   02??           00209         SUBWF   SERVO_GARRA
0114   1903           00210         BTFSC   STATUS, Z
0115   2???           00211         GOTO    AUTOMATIC_HIGH
Warning[207]: Found label after column 1. (AUTOMATIC_LOW)
0116                  00212         AUTOMATIC_LOW:
0116   30FD           00213             MOVLW       .253
0117   00??           00214             MOVWF       BAJO
0118   30B5           00215             MOVLW       .181
0119   00??           00216             MOVWF       ALTO
011A   2???           00217             CALL        CONVERSION_COMPU
011B   2???           00218             GOTO        LOOP
MPASM 5.77                          CODE.ASM   11-21-2020  23:16:39         PAGE  6


LOC  OBJECT CODE     LINE SOURCE TEXT
  VALUE

Warning[207]: Found label after column 1. (AUTOMATIC_HIGH)
011C                  00219         AUTOMATIC_HIGH:
011C   30FA           00220             MOVLW       .250
011D   00??           00221             MOVWF       BAJO
011E   30B8           00222             MOVLW       .184
011F   00??           00223             MOVWF       ALTO
0120   2???           00224             CALL        CONVERSION_COMPU
0121   2???           00225             GOTO        LOOP        
                      00226 
                      00227 ;*******************************************************************************
                      00228 ; RUTINA DE SELECCIÓN DE MODOS DE FUNCIONAMIENTO
                      00229 ;*******************************************************************************    
0122                  00230 MODO_FUNCIONAMIENTO:
0122   08??           00231     MOVFW   FLAG_ANTIREBOTE
0123   3C01           00232     SUBLW   .1                  ; REVISA QUE SÍ HAYA PASADO POR EL ANTIREBOTE
0124   1D03           00233     BTFSS   STATUS, Z           ; SI NO PASÓ POR EL ANTIREBOTE, SIGNIFICA QUE NO SE PRESIONÓ EL BOTÓN Y 
                            NO EJECUTA LA INSTRUCCIÓN
Warning[203]: Found opcode in column 1. (RETURN)
0125   0008           00234 RETURN
0126   01??           00235     CLRF    FLAG_ANTIREBOTE     ; LIMPIA LA BANDERA PARA QUE SE PUEDA VOLVER A PRESIONAR EL BOTÓN SIN RE
                            BOTES
0127   08??           00236     MOVFW   MODO                
0128   3C01           00237     SUBLW   .1                  
0129   1903           00238     BTFSC   STATUS, Z
012A   2???           00239     GOTO    REINICIOA           ; SIRVE PARA QUE NO SE PASE DEL MODO 8
Warning[207]: Found label after column 1. (CONTEO)
012B                  00240     CONTEO:
012B   30FD           00241         MOVLW   .253
012C   00??           00242         MOVWF   BAJO
012D   30B5           00243         MOVLW   .181
012E   00??           00244         MOVWF   ALTO
Message[305]: Using default destination of 1 (file).
012F   0A??           00245         INCF    MODO
0130   0008           00246     RETURN
Warning[207]: Found label after column 1. (REINICIOA)
0131                  00247     REINICIOA:
0131   30FA           00248         MOVLW   .250
0132   00??           00249         MOVWF   BAJO
0133   30B8           00250         MOVLW   .184
0134   00??           00251         MOVWF   ALTO
0135   01??           00252         CLRF    MODO
0136   0008           00253     RETURN   
                      00254 
                      00255 ;*******************************************************************************
                      00256 ; RUTINA DE ANTIREBOTE
                      00257 ;*******************************************************************************        
0137                  00258 ANTIR:
0137   1400           00259     BSF   FLAG_ANTIREBOTE, 0    ; YA QUE SE USAN PULL UPS, ESTE MASKING ME PERMITE VER QUÉ VALOR SE COLO
                            CÓ EN CERO, ES DECIR, SE PRESIONÓ
Warning[203]: Found opcode in column 1. (RETURN)
0138   0008           00260 RETURN        
                      00261     
                      00262 ;*******************************************************************************
MPASM 5.77                          CODE.ASM   11-21-2020  23:16:39         PAGE  7


LOC  OBJECT CODE     LINE SOURCE TEXT
  VALUE

                      00263 ; RUTINA DE CONVERSION ADC
                      00264 ;*******************************************************************************         
0139                  00265 CONVERSION_ADC:
0139   1283 1303      00266     BANKSEL ADCON0
013B   3003           00267     MOVLW   b'00000011'                 
013C   009F           00268     MOVWF   ADCON0  
013D   2???           00269     CALL    DELAY
                      00270    
013E   149F           00271     BSF     ADCON0,GO
013F   189F           00272     BTFSC   ADCON0,GO 
0140   2???           00273     GOTO    $-1
                      00274     
0141   1283 1303      00275     BANKSEL ADRESH
0143   081E           00276     MOVFW   ADRESH
0144   00??           00277     MOVWF   VAR_ADCY    
                      00278     
0145   0C??           00279     RRF     VAR_ADCY, 0
0146   397F           00280     ANDLW   b'01111111'
0147   3E20           00281     ADDLW   .32
0148   009B           00282     MOVWF   CCPR2L 
                      00283     
0149   1283 1303      00284     BANKSEL ADCON0
014B   3013           00285     MOVLW   b'00010011'                 
014C   009F           00286     MOVWF   ADCON0
014D   2???           00287     CALL    DELAY
                      00288     
014E   149F           00289     BSF     ADCON0,GO
014F   189F           00290     BTFSC   ADCON0,GO 
0150   2???           00291     GOTO    $-1
                      00292     
0151   1283 1303      00293     BANKSEL ADRESH
0153   081E           00294     MOVFW   ADRESH
0154   00??           00295     MOVWF   VAR_ADCX
                      00296     
0155   0C??           00297     RRF     VAR_ADCX, 0
0156   397F           00298     ANDLW   b'01111111'
0157   3E20           00299     ADDLW   .32
0158   0095           00300     MOVWF   CCPR1L
Warning[203]: Found opcode in column 1. (RETURN)
0159   0008           00301 RETURN    
                      00302 
                      00303 ;*******************************************************************************
                      00304 ; RUTINA DE CONVERSION COMPU
                      00305 ;*******************************************************************************         
015A                  00306 CONVERSION_COMPU:   
015A   0D??           00307     RLF     SERVO_EJE1, 0
015B   39FE           00308     ANDLW   b'11111110'
015C   0D??           00309     RLF     SERVO_EJE1, 0
015D   39FE           00310     ANDLW   b'11111110'
015E   0D??           00311     RLF     SERVO_EJE1, 0
015F   39FE           00312     ANDLW   b'11111110'
0160   0D??           00313     RLF     SERVO_EJE1, 0
0161   39FE           00314     ANDLW   b'11111110'
MPASM 5.77                          CODE.ASM   11-21-2020  23:16:39         PAGE  8


LOC  OBJECT CODE     LINE SOURCE TEXT
  VALUE

0162   3E20           00315     ADDLW   .32
0163   0095           00316     MOVWF   CCPR1L
                      00317     
0164   0D??           00318     RLF     SERVO_EJE2, 0
0165   39FE           00319     ANDLW   b'11111110'
0166   0D??           00320     RLF     SERVO_EJE2, 0
0167   39FE           00321     ANDLW   b'11111110'
0168   0D??           00322     RLF     SERVO_EJE2, 0
0169   39FE           00323     ANDLW   b'11111110'
016A   0D??           00324     RLF     SERVO_EJE2, 0
016B   39FE           00325     ANDLW   b'11111110'
016C   3E20           00326     ADDLW   .32
016D   009B           00327     MOVWF   CCPR2L
Warning[203]: Found opcode in column 1. (RETURN)
016E   0008           00328 RETURN    
                      00329     
                      00330 ;*******************************************************************************
                      00331 ; RUTINA DE DELAYS
                      00332 ;*******************************************************************************                
016F                  00333 DELAY:
016F   303C           00334     MOVLW   .60                     
0170   00??           00335     MOVWF   CONT1
0171   0B??           00336     DECFSZ  CONT1, F
0172   2???           00337     GOTO    $-1                       
Warning[203]: Found opcode in column 1. (RETURN)
0173   0008           00338 RETURN          
                      00339     
                      00340 ;*******************************************************************************
                      00341 ; CONFIGURACIONES
                      00342 ;*******************************************************************************         
0174                  00343 CONFIGURACION_BASE:
0174   1283 1303      00344     BANKSEL PORTA
0176   0185           00345     CLRF    PORTA               ; LIMPIA LOS PUERTOS PARA EVITAR QUE TENGAN CUALQUIER VALOR INICIAL DIST
                            INTO DE 0
0177   0186           00346     CLRF    PORTB
0178   0187           00347     CLRF    PORTC
0179   0188           00348     CLRF    PORTD
017A   0189           00349     CLRF    PORTE
                      00350 
017B   1683 1703      00351     BANKSEL ANSEL
Message[302]: Register in operand not in bank 0.  Ensure that bank bits are correct.
017D   0188           00352     CLRF    ANSEL
Message[302]: Register in operand not in bank 0.  Ensure that bank bits are correct.
017E   1408           00353     BSF     ANSEL, 0            ; POT EN X
Message[302]: Register in operand not in bank 0.  Ensure that bank bits are correct.
017F   1688           00354     BSF     ANSEL, 5            ; POT EN Y
Message[302]: Register in operand not in bank 0.  Ensure that bank bits are correct.
0180   0189           00355     CLRF    ANSELH              ; BORRA EL CONTROL DE ENTRADAS ANALÓGICAS       
                      00356 
0181   1683 1303      00357     BANKSEL TRISA
0183   3021           00358     MOVLW   b'00100001'         ; POT Y TRANSISTORES
Message[302]: Register in operand not in bank 0.  Ensure that bank bits are correct.
0184   0085           00359     MOVWF   TRISA
MPASM 5.77                          CODE.ASM   11-21-2020  23:16:39         PAGE  9


LOC  OBJECT CODE     LINE SOURCE TEXT
  VALUE

                      00360                 
0185   3080           00361     MOVLW   b'10000000'         ; PUSHES EN EL PUERTO B PARA INCLUIR LOS PULL UPS POR SOFTWARE - TIENE 4
                             SALIDAS PUES SE CONECTARON AHÍ LOS TRANSISTORES (NPN 3904)
Message[302]: Register in operand not in bank 0.  Ensure that bank bits are correct.
0186   0086           00362     MOVWF   TRISB
Message[302]: Register in operand not in bank 0.  Ensure that bank bits are correct.
0187   0095           00363     MOVWF   WPUB                ; PARA PULL UPS
Message[302]: Register in operand not in bank 0.  Ensure that bank bits are correct.
0188   1381           00364     BCF     OPTION_REG, 7
                      00365     
Message[302]: Register in operand not in bank 0.  Ensure that bank bits are correct.
0189   0187           00366     CLRF    TRISC               ; SIN USAR
Message[302]: Register in operand not in bank 0.  Ensure that bank bits are correct.
018A   0188           00367     CLRF    TRISD               ; PARA DISPLAY    
Message[302]: Register in operand not in bank 0.  Ensure that bank bits are correct.
018B   0189           00368     CLRF    TRISE
                      00369     
018C   1283 1303      00370     BANKSEL PORTA
018E   01??           00371     CLRF    FLAG_ANTIREBOTE
018F   01??           00372     CLRF    VAR_ADCX  
0190   01??           00373     CLRF    VAR_ADCY  
0191   01??           00374     CLRF    MODO
0192   01??           00375     CLRF    ALTO
0193   01??           00376     CLRF    BAJO
0194   01??           00377     CLRF    TOGGLE
0195   01??           00378     CLRF    CONT1
0196   01??           00379     CLRF    SERVO_GARRA
0197   01??           00380     CLRF    SERVO_EJE1
0198   01??           00381     CLRF    SERVO_EJE2
0199   01??           00382     CLRF    SERVO_FUN
Warning[203]: Found opcode in column 1. (RETURN)
019A   0008           00383 RETURN
                      00384     
019B                  00385 CONFIGURACION_PWM:
Warning[207]: Found label after column 1. (SERVO1)
019B                  00386     SERVO1:
019B   1283 1303      00387     BANKSEL CCP1CON
019D   1397           00388     BCF     CCP1CON, 7
019E   1317           00389     BCF     CCP1CON, 6          ; 6 Y 7 PARA SINGLE OUTPUT
019F   1297           00390     BCF     CCP1CON, 5          
01A0   1217           00391     BCF     CCP1CON, 4          ; BITS MENOS SIGNIFICATIVOS PARA EL ANCHO DE PULSO
01A1   1597           00392     BSF     CCP1CON, 3
01A2   1517           00393     BSF     CCP1CON, 2
01A3   1097           00394     BCF     CCP1CON, 1
01A4   1017           00395     BCF     CCP1CON, 0
Warning[207]: Found label after column 1. (SERVO2)
01A5                  00396     SERVO2:
01A5   1283 1303      00397     BANKSEL CCP2CON
01A7   129D           00398     BCF     CCP2CON, 5          
01A8   121D           00399     BCF     CCP2CON, 4          ; BITS MENOS SIGNIFICATIVOS PARA EL ANCHO DE PULSO
01A9   159D           00400     BSF     CCP2CON, 3
01AA   151D           00401     BSF     CCP2CON, 2
01AB   149D           00402     BSF     CCP2CON, 1
MPASM 5.77                          CODE.ASM   11-21-2020  23:16:39         PAGE 10


LOC  OBJECT CODE     LINE SOURCE TEXT
  VALUE

01AC   141D           00403     BSF     CCP2CON, 0
Warning[203]: Found opcode in column 1. (RETURN)
01AD   0008           00404 RETURN    
                      00405     
01AE                  00406 CONFIGURACION_TIMER0:
01AE   1683 1303      00407     BANKSEL TRISA
01B0   0064           00408     CLRWDT                      ; CONFIGURACIÓN PARA EL FUNCIONAMIENTO DEL TIMER0
01B1   3057           00409     MOVLW   b'01010111'         ; PRESCALER DE 1:256 PARA PODER GENERAR INTERRUPCIONES DE 0.5ms
Message[302]: Register in operand not in bank 0.  Ensure that bank bits are correct.
01B2   0081           00410     MOVWF   OPTION_REG 
01B3   1283 1303      00411     BANKSEL PORTA
Warning[203]: Found opcode in column 1. (RETURN)
01B5   0008           00412 RETURN 
                      00413     
01B6                  00414 CONFIGURACION_TIMER2:
01B6   1283 1303      00415     BANKSEL PORTA
01B8   30FF           00416     MOVLW   b'11111111' ; PRESCALER Y POSTSCALER DE 16 CADA UNO Y TIMER 2 ACTIVADO
01B9   0092           00417     MOVWF   T2CON    
Warning[203]: Found opcode in column 1. (RETURN)
01BA   0008           00418 RETURN
                      00419     
01BB                  00420 CONFIGURACION_INTERRUPCION:
01BB   1683 1303      00421     BANKSEL TRISA
Message[302]: Register in operand not in bank 0.  Ensure that bank bits are correct.
01BD   168C           00422     BSF     PIE1, RCIE          ; HABILITA INTERRUPCION DE RECEPCION SERIAL CON RX
01BE   170B           00423     BSF     INTCON, PEIE        ; INTERRUPCIONES PERIFÉRICAS -RC-
01BF   168B           00424     BSF     INTCON, T0IE
                      00425     
01C0   30BB           00426     MOVLW   .187                ; TECHO PARA TIMER2 - PARA QUE EL PWM FUNCIONE CON 3ms
Message[302]: Register in operand not in bank 0.  Ensure that bank bits are correct.
01C1   0092           00427     MOVWF   PR2                 ; PARA PULSO DE 0° --> CCPR1L = 0x20 ^ CCP1CON<5:4> = b'00
                      00428                                 ; PARA PULSO DE 180° --> CCP1L = 0x9D ^ CCP1CON<5:4> = b'00
                      00429                                 ; FUNCION PARA CONVERSION DE DATOS ADC PARA METER EN EL CCPR1L:
                      00430                                 ; CCP1RL = 32 + ADC/2
                      00431     
01C2   1283 1303      00432     BANKSEL PORTA
01C4   178B           00433     BSF     INTCON, GIE         ; HABILITA LAS INTERRUPCIONES
01C5   110B           00434     BCF     INTCON, T0IF        ; PARA ASEGURARSE DE QUE NO TENGA OVERFLOW AL INICIO
Warning[203]: Found opcode in column 1. (RETURN)
01C6   0008           00435 RETURN
                      00436 
01C7                  00437 CONFIGURACION_ADC:    
01C7   1683 1303      00438     BANKSEL ADCON1 
Message[302]: Register in operand not in bank 0.  Ensure that bank bits are correct.
01C9   019F           00439     CLRF    ADCON1              ; VDD Y VSS COMO REFERENCIA / JUSTIFICADO A LA IZQUIERDA
                      00440     
01CA   1283 1303      00441     BANKSEL ADCON0 
01CC   141F           00442     BSF     ADCON0, 0
01CD   149F           00443     BSF     ADCON0, 1  
01CE   111F           00444     BCF     ADCON0, 2
01CF   119F           00445     BCF     ADCON0, 3
01D0   129F           00446     BCF     ADCON0, 5
01D1   131F           00447     BCF     ADCON0, 6
MPASM 5.77                          CODE.ASM   11-21-2020  23:16:39         PAGE 11


LOC  OBJECT CODE     LINE SOURCE TEXT
  VALUE

01D2   139F           00448     BCF     ADCON0, 7   
Warning[203]: Found opcode in column 1. (RETURN)
01D3   0008           00449 RETURN
                      00450 
01D4                  00451 CONFIGURACION_TX_9600:
01D4   1683 1303      00452     BANKSEL TRISA
Message[302]: Register in operand not in bank 0.  Ensure that bank bits are correct.
01D6   1318           00453     BCF     TXSTA, TX9    
Message[302]: Register in operand not in bank 0.  Ensure that bank bits are correct.
01D7   1218           00454     BCF     TXSTA, SYNC     ; PARA LOGRAR UN BAUD DE 9600 CON UN FOSC DE 4MHz
Message[302]: Register in operand not in bank 0.  Ensure that bank bits are correct.
01D8   1518           00455     BSF     TXSTA, BRGH     ; PARA LOGRAR UN BAUD DE 9600 CON UN FOSC DE 4MHz
                      00456 
01D9   1683 1703      00457     BANKSEL ANSEL
Message[302]: Register in operand not in bank 0.  Ensure that bank bits are correct.
01DB   1187           00458     BCF     BAUDCTL, BRG16  ; PARA LOGRAR UN BAUD DE 9600 CON UN FOSC DE 4MHz
                      00459     
01DC   1683 1303      00460     BANKSEL TRISA
01DE   3019           00461     MOVLW   .25
Message[302]: Register in operand not in bank 0.  Ensure that bank bits are correct.
01DF   0099           00462     MOVWF   SPBRG           ; PARA LOGRAR UN BAUD DE 9600 CON UN FOSC DE 4MHz
Message[302]: Register in operand not in bank 0.  Ensure that bank bits are correct.
01E0   019A           00463     CLRF    SPBRGH          ; PARA LOGRAR UN BAUD DE 9600 CON UN FOSC DE 4MHz
Message[302]: Register in operand not in bank 0.  Ensure that bank bits are correct.
01E1   1698           00464     BSF     TXSTA, TXEN    
01E2   1283 1303      00465     BANKSEL PORTA
Warning[203]: Found opcode in column 1. (RETURN)
01E4   0008           00466 RETURN
                      00467     
01E5                  00468 CONFIGURACION_RX:
01E5   1283 1303      00469     BANKSEL PORTA
01E7   1798           00470     BSF     RCSTA, SPEN
01E8   1318           00471     BCF     RCSTA, RX9
01E9   1618           00472     BSF     RCSTA, CREN
Warning[203]: Found opcode in column 1. (RETURN)
01EA   0008           00473 RETURN
                      00474     
                      00475 ;*******************************************************************************
                      00476     
20D4 3FFF             00477     END 
MPASM 5.77                          CODE.ASM   11-21-2020  23:16:39         PAGE 12


SYMBOL TABLE
  LABEL                             VALUE 

ABDEN                             00000000
ABDOVF                            00000007
ACKDT                             00000005
ACKEN                             00000004
ACKSTAT                           00000006
ADCON0                            0000001F
ADCON1                            0000009F
ADCS0                             00000006
ADCS1                             00000007
ADDEN                             00000003
ADFM                              00000007
ADIE                              00000006
ADIF                              00000006
ADON                              00000000
ADRESH                            0000001E
ADRESL                            0000009E
ALTO                              00000006
ANS0                              00000000
ANS1                              00000001
ANS10                             00000002
ANS11                             00000003
ANS12                             00000004
ANS13                             00000005
ANS2                              00000002
ANS3                              00000003
ANS4                              00000004
ANS5                              00000005
ANS6                              00000006
ANS7                              00000007
ANS8                              00000000
ANS9                              00000001
ANSEL                             00000188
ANSELH                            00000189
ANTIR                             00000137
AUTOMATIC                         00000112
AUTOMATIC_HIGH                    0000011C
AUTOMATIC_LOW                     00000116
BAJO                              00000007
BANDERA_RX                        0000001F
BANDERA_TIMER0                    00000011
BAUDCTL                           00000187
BCLIE                             00000003
BCLIF                             00000003
BF                                00000000
BRG0                              00000000
BRG1                              00000001
BRG10                             00000002
BRG11                             00000003
BRG12                             00000004
BRG13                             00000005
BRG14                             00000006
BRG15                             00000007
BRG16                             00000003
MPASM 5.77                          CODE.ASM   11-21-2020  23:16:39         PAGE 13


SYMBOL TABLE
  LABEL                             VALUE 

BRG2                              00000002
BRG3                              00000003
BRG4                              00000004
BRG5                              00000005
BRG6                              00000006
BRG7                              00000007
BRG8                              00000000
BRG9                              00000001
BRGH                              00000002
C                                 00000000
C1CH0                             00000000
C1CH1                             00000001
C1IE                              00000005
C1IF                              00000005
C1OE                              00000005
C1ON                              00000007
C1OUT                             00000006
C1POL                             00000004
C1R                               00000002
C1RSEL                            00000005
C1SEN                             00000005
C2CH0                             00000000
C2CH1                             00000001
C2IE                              00000006
C2IF                              00000006
C2OE                              00000005
C2ON                              00000007
C2OUT                             00000006
C2POL                             00000004
C2R                               00000002
C2REN                             00000004
C2RSEL                            00000004
C2SYNC                            00000000
CCP1CON                           00000017
CCP1IE                            00000002
CCP1IF                            00000002
CCP1M0                            00000000
CCP1M1                            00000001
CCP1M2                            00000002
CCP1M3                            00000003
CCP1X                             00000005
CCP1Y                             00000004
CCP2CON                           0000001D
CCP2IE                            00000000
CCP2IF                            00000000
CCP2M0                            00000000
CCP2M1                            00000001
CCP2M2                            00000002
CCP2M3                            00000003
CCP2X                             00000005
CCP2Y                             00000004
CCPR1                             00000015
CCPR1H                            00000016
MPASM 5.77                          CODE.ASM   11-21-2020  23:16:39         PAGE 14


SYMBOL TABLE
  LABEL                             VALUE 

CCPR1L                            00000015
CCPR2                             0000001B
CCPR2H                            0000001C
CCPR2L                            0000001B
CHS0                              00000002
CHS1                              00000003
CHS2                              00000004
CHS3                              00000005
CKE                               00000006
CKP                               00000004
CM1CON0                           00000107
CM2CON0                           00000108
CM2CON1                           00000109
CONFIGURACION_ADC                 000001C7
CONFIGURACION_BASE                00000174
CONFIGURACION_INTERRUPCION        000001BB
CONFIGURACION_PWM                 0000019B
CONFIGURACION_RX                  000001E5
CONFIGURACION_TIMER0              000001AE
CONFIGURACION_TIMER2              000001B6
CONFIGURACION_TX_9600             000001D4
CONT1                             00000009
CONTEO                            0000012B
CONVERSION_ADC                    00000139
CONVERSION_COMPU                  0000015A
CREN                              00000004
CSRC                              00000007
CUENTARX                          00000016
D                                 00000005
DATA_ADDRESS                      00000005
DC                                00000001
DC1B0                             00000004
DC1B1                             00000005
DC2B0                             00000004
DC2B1                             00000005
DELAY                             0000016F
D_A                               00000005
D_NOT_A                           00000005
ECCPAS                            0000009C
ECCPAS0                           00000004
ECCPAS1                           00000005
ECCPAS2                           00000006
ECCPASE                           00000007
EEADR                             0000010D
EEADRH                            0000010F
EECON1                            0000018C
EECON2                            0000018D
EEDAT                             0000010C
EEDATA                            0000010C
EEDATH                            0000010E
EEIE                              00000004
EEIF                              00000004
EEPGD                             00000007
MPASM 5.77                          CODE.ASM   11-21-2020  23:16:39         PAGE 15


SYMBOL TABLE
  LABEL                             VALUE 

ERRONEO                           00000053
F                                 00000001
FERR                              00000002
FLAG_ANTIREBOTE                   00000004
FSR                               00000004
FVREN                             00000000
GCEN                              00000007
GIE                               00000007
GO                                00000001
GO_DONE                           00000001
GO_NOT_DONE                       00000001
HIGH_OPEN                         00000013
HTS                               00000002
I2C_DATA                          00000005
I2C_READ                          00000002
I2C_START                         00000003
I2C_STOP                          00000004
INDF                              00000000
INTCON                            0000000B
INTE                              00000004
INTEDG                            00000006
INTF                              00000001
IOCB                              00000096
IOCB0                             00000000
IOCB1                             00000001
IOCB2                             00000002
IOCB3                             00000003
IOCB4                             00000004
IOCB5                             00000005
IOCB6                             00000006
IOCB7                             00000007
IRCF0                             00000004
IRCF1                             00000005
IRCF2                             00000006
IRP                               00000007
ISR                               00000008
LOOP                              00000108
LOW_OPEN                          00000019
LTS                               00000001
MANUAL                            0000010C
MC1OUT                            00000007
MC2OUT                            00000006
MODO                              00000005
MODO_FUNCIONAMIENTO               00000122
MSK                               00000093
MSK0                              00000000
MSK1                              00000001
MSK2                              00000002
MSK3                              00000003
MSK4                              00000004
MSK5                              00000005
MSK6                              00000006
MSK7                              00000007
MPASM 5.77                          CODE.ASM   11-21-2020  23:16:39         PAGE 16


SYMBOL TABLE
  LABEL                             VALUE 

NOT_A                             00000005
NOT_ADDRESS                       00000005
NOT_BO                            00000000
NOT_BOR                           00000000
NOT_DONE                          00000001
NOT_PD                            00000003
NOT_POR                           00000001
NOT_RBPU                          00000007
NOT_RC8                           00000006
NOT_T1SYNC                        00000002
NOT_TO                            00000004
NOT_TX8                           00000006
NOT_W                             00000002
NOT_WRITE                         00000002
OERR                              00000001
OPTION_REG                        00000081
OSCCON                            0000008F
OSCTUNE                           00000090
OSFIE                             00000007
OSFIF                             00000007
OSTS                              00000003
P                                 00000004
P1M0                              00000006
P1M1                              00000007
PCL                               00000002
PCLATH                            0000000A
PCON                              0000008E
PDC0                              00000000
PDC1                              00000001
PDC2                              00000002
PDC3                              00000003
PDC4                              00000004
PDC5                              00000005
PDC6                              00000006
PEIE                              00000006
PEN                               00000002
PIE1                              0000008C
PIE2                              0000008D
PIR1                              0000000C
PIR2                              0000000D
POP                               0000000C
PORTA                             00000005
PORTB                             00000006
PORTC                             00000007
PORTD                             00000008
PORTE                             00000009
PR2                               00000092
PRSEN                             00000007
PS0                               00000000
PS1                               00000001
PS2                               00000002
PSA                               00000003
PSSAC0                            00000002
MPASM 5.77                          CODE.ASM   11-21-2020  23:16:39         PAGE 17


SYMBOL TABLE
  LABEL                             VALUE 

PSSAC1                            00000003
PSSBD0                            00000000
PSSBD1                            00000001
PSTRCON                           0000009D
PULSR                             00000002
PULSS                             00000003
PUSH                              00000004
PWM1CON                           0000009B
R                                 00000002
RA0                               00000000
RA1                               00000001
RA2                               00000002
RA3                               00000003
RA4                               00000004
RA5                               00000005
RA6                               00000006
RA7                               00000007
RB0                               00000000
RB1                               00000001
RB2                               00000002
RB3                               00000003
RB4                               00000004
RB5                               00000005
RB6                               00000006
RB7                               00000007
RBIE                              00000003
RBIF                              00000000
RC0                               00000000
RC1                               00000001
RC2                               00000002
RC3                               00000003
RC4                               00000004
RC5                               00000005
RC6                               00000006
RC7                               00000007
RC8_9                             00000006
RC9                               00000006
RCD8                              00000000
RCEN                              00000003
RCIDL                             00000006
RCIE                              00000005
RCIF                              00000005
RCREG                             0000001A
RCSTA                             00000018
RD                                00000000
RD0                               00000000
RD1                               00000001
RD2                               00000002
RD3                               00000003
RD4                               00000004
RD5                               00000005
RD6                               00000006
RD7                               00000007
MPASM 5.77                          CODE.ASM   11-21-2020  23:16:39         PAGE 18


SYMBOL TABLE
  LABEL                             VALUE 

RE0                               00000000
RE1                               00000001
RE2                               00000002
RE3                               00000003
READ_WRITE                        00000002
REINICIOA                         00000131
RP0                               00000005
RP1                               00000006
RSEN                              00000001
RX9                               00000006
RX9D                              00000000
RXB0                              0000000A
RXB1                              0000000B
RXB2                              0000000C
RXB3                              0000000D
RXB4                              0000000E
RXB5                              0000000F
RXB6                              00000010
RXB7                              00000011
R_NOT_W                           00000002
R_W                               00000002
S                                 00000003
SBOREN                            00000004
SCKP                              00000004
SCS                               00000000
SEN                               00000000
SENDB                             00000003
SERVO1                            0000019B
SERVO2                            000001A5
SERVO_EJE1                        00000013
SERVO_EJE2                        00000014
SERVO_FUN                         00000015
SERVO_GARRA                       00000012
SETUP                             00000100
SMP                               00000007
SPBRG                             00000099
SPBRGH                            0000009A
SPEN                              00000007
SR0                               00000006
SR1                               00000007
SRCON                             00000185
SREN                              00000005
SSPADD                            00000093
SSPBUF                            00000013
SSPCON                            00000014
SSPCON2                           00000091
SSPEN                             00000005
SSPIE                             00000003
SSPIF                             00000003
SSPM0                             00000000
SSPM1                             00000001
SSPM2                             00000002
SSPM3                             00000003
MPASM 5.77                          CODE.ASM   11-21-2020  23:16:39         PAGE 19


SYMBOL TABLE
  LABEL                             VALUE 

SSPMSK                            00000093
SSPOV                             00000006
SSPSTAT                           00000094
START                             00000100
STATUS                            00000003
STATUS_TEMP                       00000001
STRA                              00000000
STRB                              00000001
STRC                              00000002
STRD                              00000003
STRSYNC                           00000004
SWDTEN                            00000000
SYNC                              00000004
T0CS                              00000005
T0IE                              00000005
T0IF                              00000002
T0SE                              00000004
T1CKPS0                           00000004
T1CKPS1                           00000005
T1CON                             00000010
T1GINV                            00000007
T1GIV                             00000007
T1GSS                             00000001
T1INSYNC                          00000002
T1OSCEN                           00000003
T1SYNC                            00000002
T2CKPS0                           00000000
T2CKPS1                           00000001
T2CON                             00000012
TMR0                              00000001
TMR0IE                            00000005
TMR0IF                            00000002
TMR1                              0000000E
TMR1CS                            00000001
TMR1GE                            00000006
TMR1H                             0000000F
TMR1IE                            00000000
TMR1IF                            00000000
TMR1L                             0000000E
TMR1ON                            00000000
TMR2                              00000011
TMR2IE                            00000001
TMR2IF                            00000001
TMR2ON                            00000002
TOGGLE                            00000008
TOUTPS0                           00000003
TOUTPS1                           00000004
TOUTPS2                           00000005
TOUTPS3                           00000006
TRISA                             00000085
TRISA0                            00000000
TRISA1                            00000001
TRISA2                            00000002
MPASM 5.77                          CODE.ASM   11-21-2020  23:16:39         PAGE 20


SYMBOL TABLE
  LABEL                             VALUE 

TRISA3                            00000003
TRISA4                            00000004
TRISA5                            00000005
TRISA6                            00000006
TRISA7                            00000007
TRISB                             00000086
TRISB0                            00000000
TRISB1                            00000001
TRISB2                            00000002
TRISB3                            00000003
TRISB4                            00000004
TRISB5                            00000005
TRISB6                            00000006
TRISB7                            00000007
TRISC                             00000087
TRISC0                            00000000
TRISC1                            00000001
TRISC2                            00000002
TRISC3                            00000003
TRISC4                            00000004
TRISC5                            00000005
TRISC6                            00000006
TRISC7                            00000007
TRISD                             00000088
TRISD0                            00000000
TRISD1                            00000001
TRISD2                            00000002
TRISD3                            00000003
TRISD4                            00000004
TRISD5                            00000005
TRISD6                            00000006
TRISD7                            00000007
TRISE                             00000089
TRISE0                            00000000
TRISE1                            00000001
TRISE2                            00000002
TRISE3                            00000003
TRMT                              00000001
TUN0                              00000000
TUN1                              00000001
TUN2                              00000002
TUN3                              00000003
TUN4                              00000004
TX8_9                             00000006
TX9                               00000006
TX9D                              00000000
TXD8                              00000000
TXEN                              00000005
TXIE                              00000004
TXIF                              00000004
TXREG                             00000019
TXSTA                             00000098
UA                                00000001
MPASM 5.77                          CODE.ASM   11-21-2020  23:16:39         PAGE 21


SYMBOL TABLE
  LABEL                             VALUE 

ULPWUE                            00000005
ULPWUIE                           00000002
ULPWUIF                           00000002
VAR_ADCX                          00000002
VAR_ADCY                          00000003
VCFG0                             00000004
VCFG1                             00000005
VERIFICACION                      00000034
VR0                               00000000
VR1                               00000001
VR2                               00000002
VR3                               00000003
VRCON                             00000097
VREN                              00000007
VROE                              00000006
VRR                               00000005
VRSS                              00000004
W                                 00000000
WCOL                              00000007
WDTCON                            00000105
WDTPS0                            00000001
WDTPS1                            00000002
WDTPS2                            00000003
WDTPS3                            00000004
WPUB                              00000095
WPUB0                             00000000
WPUB1                             00000001
WPUB2                             00000002
WPUB3                             00000003
WPUB4                             00000004
WPUB5                             00000005
WPUB6                             00000006
WPUB7                             00000007
WR                                00000001
WREN                              00000002
WRERR                             00000003
WUE                               00000001
W_TEMP                            00000000
Z                                 00000002
_BOR21V                           00003EFF
_BOR40V                           00003FFF
_BOR4V_BOR21V                     00003EFF
_BOR4V_BOR40V                     00003FFF
_BOREN_NSLEEP                     00003EFF
_BOREN_OFF                        00003CFF
_BOREN_ON                         00003FFF
_BOREN_SBODEN                     00003DFF
_BOR_NSLEEP                       00003EFF
_BOR_OFF                          00003CFF
_BOR_ON                           00003FFF
_BOR_SBODEN                       00003DFF
_CONFIG1                          00002007
_CONFIG2                          00002008
MPASM 5.77                          CODE.ASM   11-21-2020  23:16:39         PAGE 22


SYMBOL TABLE
  LABEL                             VALUE 

_CPD_OFF                          00003FFF
_CPD_ON                           00003F7F
_CP_OFF                           00003FFF
_CP_ON                            00003FBF
_DEBUG_OFF                        00003FFF
_DEBUG_ON                         00001FFF
_DEVID1                           00002006
_EC_OSC                           00003FFB
_EXTRC                            00003FFF
_EXTRCIO                          00003FFE
_EXTRC_OSC_CLKOUT                 00003FFF
_EXTRC_OSC_NOCLKOUT               00003FFE
_FCMEN_OFF                        000037FF
_FCMEN_ON                         00003FFF
_FOSC_EC                          00003FFB
_FOSC_EXTRC_CLKOUT                00003FFF
_FOSC_EXTRC_NOCLKOUT              00003FFE
_FOSC_HS                          00003FFA
_FOSC_INTRC_CLKOUT                00003FFD
_FOSC_INTRC_NOCLKOUT              00003FFC
_FOSC_LP                          00003FF8
_FOSC_XT                          00003FF9
_HS_OSC                           00003FFA
_IDLOC0                           00002000
_IDLOC1                           00002001
_IDLOC2                           00002002
_IDLOC3                           00002003
_IESO_OFF                         00003BFF
_IESO_ON                          00003FFF
_INTOSC                           00003FFD
_INTOSCIO                         00003FFC
_INTRC_OSC_CLKOUT                 00003FFD
_INTRC_OSC_NOCLKOUT               00003FFC
_LP_OSC                           00003FF8
_LVP_OFF                          00002FFF
_LVP_ON                           00003FFF
_MAIN_PROG_0140                   00000140
_MAIN_PROG_0150                   00000150
_MAIN_PROG_0172                   00000172
_MCLRE_OFF                        00003FDF
_MCLRE_ON                         00003FFF
_PWRTE_OFF                        00003FFF
_PWRTE_ON                         00003FEF
_WDTE_OFF                         00003FF7
_WDTE_ON                          00003FFF
_WDT_OFF                          00003FF7
_WDT_ON                           00003FFF
_WRT_1FOURTH                      00003BFF
_WRT_256                          00003DFF
_WRT_HALF                         000039FF
_WRT_OFF                          00003FFF
_XT_OSC                           00003FF9
__16F887                          00000001
MPASM 5.77                          CODE.ASM   11-21-2020  23:16:39         PAGE 23






Errors   :     0
Warnings :    49 reported,     0 suppressed
Messages :    25 reported,     0 suppressed

